(dp1
S'output'
p2
S"<type 'exceptions.TypeError'> array([  5.56650220e+01,   5.49164950e+01,   5.42273881e+01,\n         5.35889573e+01,   5.29942572e+01,   5.24376794e+01,\n         5.19146292e+01,   5.14212961e+01,   5.09544840e+01,\n         5.05114864e+01,   5.00899912e+01,   4.96880072e+01,\n         4.93038078e+01,   4.89358858e+01,   4.85829180e+01,\n         4.82437361e+01,   4.79173036e+01,   4.76026968e+01,\n         4.72990887e+01,   4.70057362e+01,   4.67219693e+01,\n         4.64471811e+01,   4.61808210e+01,   4.59223874e+01,\n         4.56714221e+01,   4.54275056e+01,   4.51902528e+01,\n         4.49593094e+01,   4.47343484e+01,   4.45150677e+01,\n         4.43011877e+01,   4.40924486e+01,   4.38886091e+01,\n         4.36894447e+01,   4.34947455e+01,   4.33043159e+01,\n         4.31179726e+01,   4.29355440e+01,   4.27568689e+01,\n         4.25817962e+01,   4.24101833e+01,   4.22418963e+01,\n         4.20768086e+01,   4.19148010e+01,   4.17557607e+01,\n         4.15995808e+01,   4.14461605e+01,   4.12954038e+01,\n         4.11472199e+01,   4.10015225e+01,   4.08582295e+01,\n         4.07172628e+01,   4.05785483e+01,   4.04420150e+01,\n         4.03075954e+01,   4.01752252e+01,   4.00448428e+01,\n         3.99163893e+01,   3.97898086e+01,   3.96650469e+01,\n         3.95420527e+01,   3.94207765e+01,   3.93011711e+01,\n         3.91831911e+01,   3.90667929e+01,   3.89519347e+01,\n         3.88385763e+01,   3.87266790e+01,   3.86162057e+01,\n         3.85071206e+01,   3.83993893e+01,   3.82929786e+01,\n         3.81878565e+01,   3.80839922e+01,   3.79813560e+01,\n         3.78799192e+01,   3.77796542e+01,   3.76805340e+01,\n         3.75825330e+01,   3.74856262e+01,   3.73897894e+01,\n         3.72949992e+01,   3.72012331e+01,   3.71084692e+01,\n         3.70166862e+01,   3.69258638e+01,   3.68359820e+01,\n         3.67470215e+01,   3.66589636e+01,   3.65717903e+01,\n         3.64854840e+01,   3.64000276e+01,   3.63154045e+01,\n         3.62315986e+01,   3.61485944e+01,   3.60663767e+01,\n         3.59849307e+01,   3.59042420e+01,   3.58242968e+01,\n         3.57450815e+01,   3.49183492e+01,   3.42295609e+01,\n         3.35914740e+01,   3.29971431e+01,   3.24409595e+01,\n         3.19183288e+01,   3.14254403e+01,   3.09590979e+01,\n         3.05165952e+01,   3.00956199e+01,   2.96941810e+01,\n         2.93105518e+01,   2.89432250e+01,   2.85908774e+01,\n         2.82523406e+01,   2.79265783e+01,   2.76126666e+01,\n         2.73097786e+01,   2.70171711e+01,   2.67341739e+01,\n         2.64601805e+01,   2.61946398e+01,   2.59370505e+01,\n         2.56869542e+01,   2.54439315e+01,   2.52075972e+01,\n         2.49775968e+01,   2.47536035e+01,   2.45353152e+01,\n         2.43224520e+01,   2.41147543e+01,   2.39119807e+01,\n         2.37139065e+01,   2.35203221e+01,   2.33310315e+01,\n         2.31458516e+01,   2.29646106e+01,   2.27871475e+01,\n         2.26133108e+01,   2.24429582e+01,   2.22759554e+01,\n         2.21121762e+01,   2.19515010e+01,   2.17938170e+01,\n         2.16390174e+01,   2.14870012e+01,   2.13376725e+01,\n         2.11909403e+01,   2.10467183e+01,   2.09049243e+01,\n         2.07654804e+01,   2.06283121e+01,   2.04933485e+01,\n         2.03605222e+01,   2.02297685e+01,   2.01010260e+01,\n         1.99742357e+01,   1.98493414e+01,   1.97262893e+01,\n         1.96050277e+01,   1.94855073e+01,   1.93676805e+01,\n         1.92515021e+01,   1.91369284e+01,   1.90239175e+01,\n         1.89124290e+01,   1.88024244e+01,   1.86938664e+01,\n         1.85867191e+01,   1.84809480e+01,   1.83765200e+01,\n         1.82734029e+01,   1.81715659e+01,   1.80709791e+01,\n         1.79716139e+01,   1.78734425e+01,   1.77764381e+01,\n         1.76805746e+01,   1.75858272e+01,   1.74921716e+01,\n         1.73995844e+01,   1.73080428e+01,   1.72175250e+01,\n         1.71280097e+01,   1.70394762e+01,   1.69519048e+01,\n         1.68652759e+01,   1.67795708e+01,   1.66947714e+01,\n         1.66108600e+01,   1.65278195e+01,   1.64456332e+01,\n         1.63642849e+01,   1.62837590e+01,   1.62040402e+01,\n         1.61251137e+01,   1.60469650e+01,   1.59695802e+01,\n         1.58929455e+01,   1.50959186e+01,   1.44361663e+01,\n         1.38289601e+01,   1.32672652e+01,   1.27453817e+01,\n         1.22586230e+01,   1.18030854e+01,   1.13754804e+01,\n         1.09730093e+01,   1.05932691e+01,   1.02341793e+01,\n         9.89392588e+00,   9.57091640e+00,   9.26374491e+00,\n         8.97116327e+00,   8.69205802e+00,   8.42543142e+00,\n         8.17038579e+00,   7.92611048e+00,   7.69187092e+00,\n         7.46699943e+00,   7.25088736e+00,   7.04297842e+00,\n         6.84276295e+00,   6.64977292e+00,   6.46357764e+00,\n         6.28378004e+00,   6.11001333e+00,   5.94193814e+00,\n         5.77923996e+00,   5.62162690e+00,   5.46882765e+00,\n         5.32058970e+00,   5.17667775e+00,   5.03687227e+00,\n         4.90096818e+00,   4.76877373e+00,   4.64010942e+00,\n         4.51480704e+00,   4.39270881e+00,   4.27366662e+00,\n         4.15754129e+00,   4.04420191e+00,   3.93352526e+00,\n         3.82539525e+00,   3.71970243e+00,   3.61634354e+00,\n         3.51522105e+00,   3.41624283e+00,   3.31932171e+00,\n         3.22437525e+00,   3.13132535e+00,   3.04009802e+00,\n         2.95062309e+00,   2.86283399e+00,   2.77666751e+00,\n         2.69206362e+00,   2.60896523e+00,   2.52731806e+00,\n         2.44707045e+00,   2.36817320e+00,   2.29057945e+00,\n         2.21424452e+00,   2.13912579e+00,   2.06518261e+00,\n         1.99237615e+00,   1.92066932e+00,   1.85002667e+00,\n         1.78041433e+00,   1.71179986e+00,   1.64415223e+00,\n         1.57744174e+00,   1.51163991e+00,   1.44671946e+00,\n         1.38265425e+00,   1.31941916e+00,   1.25699014e+00,\n         1.19534405e+00,   1.13445870e+00,   1.07431275e+00,\n         1.01488570e+00,   9.56157824e-01,   8.98110161e-01,\n         8.40724456e-01,   7.83983136e-01,   7.27869280e-01,\n         6.72366584e-01,   6.17459338e-01,   5.63132395e-01,\n         5.09371150e-01,   4.56161511e-01,   4.03489879e-01,\n         3.51343130e-01,   2.99708587e-01,   2.48574007e-01,\n         1.97927559e-01,   1.47757809e-01,   9.80537018e-02,\n         4.88045464e-02,  -4.65644531e-01,  -8.96085954e-01,\n        -1.29762161e+00,  -1.67500977e+00,  -2.03191599e+00,\n        -2.37121201e+00,  -2.69518123e+00,  -3.00566342e+00,\n        -3.30415864e+00,  -3.59190343e+00,  -3.86992742e+00,\n        -4.13909607e+00,  -4.40014339e+00,  -4.65369720e+00,\n        -4.90029881e+00,  -5.14041864e+00,  -5.37446848e+00,\n        -5.60281144e+00,  -5.82576981e+00,  -6.04363157e+00,\n        -6.25665562e+00,  -6.46507603e+00,  -6.66910563e+00,\n        -6.86893891e+00,  -7.06475445e+00,  -7.25671696e+00,\n        -7.44497898e+00,  -7.62968230e+00,  -7.81095920e+00,\n        -7.98893346e+00,  -8.16372126e+00,  -8.33543193e+00,\n        -8.50416861e+00,  -8.67002879e+00,  -8.83310485e+00,\n        -8.99348445e+00,  -9.15125092e+00,  -9.30648360e+00,\n        -9.45925815e+00,  -9.60964677e+00,  -9.75771847e+00,\n        -9.90353930e+00,  -1.00471725e+01,  -1.01886786e+01,\n        -1.03281159e+01,  -1.04655401e+01,  -1.06010050e+01,\n        -1.07345620e+01,  -1.08662608e+01,  -1.09961491e+01,\n        -1.11242730e+01,  -1.12506768e+01,  -1.13754033e+01,\n        -1.14984935e+01,  -1.16199874e+01,  -1.17399234e+01,\n        -1.18583385e+01,  -1.19752686e+01,  -1.20907483e+01,\n        -1.22048111e+01,  -1.23174895e+01,  -1.24288147e+01,\n        -1.25388172e+01,  -1.26475263e+01,  -1.27549704e+01,\n        -1.28611772e+01,  -1.29661733e+01,  -1.30699846e+01,\n        -1.31726363e+01,  -1.32741528e+01,  -1.33745575e+01,\n        -1.34738736e+01,  -1.35721232e+01,  -1.36693279e+01,\n        -1.37655087e+01,  -1.38606861e+01,  -1.39548798e+01,\n        -1.40481091e+01,  -1.41403927e+01,  -1.42317488e+01,\n        -1.43221951e+01,  -1.44117488e+01,  -1.45004267e+01,\n        -1.45882450e+01,  -1.46752197e+01,  -1.47613661e+01,\n        -1.48466993e+01,  -1.49312340e+01,  -1.50149844e+01,\n        -1.50979644e+01,  -1.51801877e+01,  -1.52616673e+01,\n        -1.53424162e+01,  -1.54224469e+01,  -1.55017717e+01,\n        -1.55804025e+01,  -1.56583510e+01,  -1.57356285e+01,\n        -1.58122461e+01,  -1.66144136e+01,  -1.72859372e+01,\n        -1.79102829e+01,  -1.84935315e+01,  -1.90406772e+01,\n        -1.95558683e+01,  -2.00425861e+01,  -2.05037783e+01,\n        -2.09419621e+01,  -2.13593034e+01,  -2.17576784e+01,\n        -2.21387229e+01,  -2.25038713e+01,  -2.28543882e+01,\n        -2.31913939e+01,  -2.35158855e+01,  -2.38287544e+01,\n        -2.41308002e+01,  -2.44227434e+01,  -2.47052349e+01,\n        -2.49788652e+01,  -2.52441712e+01,  -2.55016426e+01,\n        -2.57517273e+01,  -2.59948359e+01,  -2.62313459e+01,\n        -2.64616051e+01,  -2.66859344e+01,  -2.69046308e+01,\n        -2.71179696e+01,  -2.73262063e+01,  -2.75295788e+01,\n        -2.77283087e+01,  -2.79226027e+01,  -2.81126541e+01,\n        -2.82986440e+01,  -2.84807420e+01,  -2.86591073e+01,\n        -2.88338896e+01,  -2.90052299e+01,  -2.91732608e+01,\n        -2.93381076e+01,  -2.94998886e+01,  -2.96587155e+01,\n        -2.98146942e+01,  -2.99679249e+01,  -3.01185025e+01,\n        -3.02665174e+01,  -3.04120551e+01,  -3.05551972e+01,\n        -3.06960211e+01,  -3.08346007e+01,  -3.09710063e+01,\n        -3.11053049e+01,  -3.12375607e+01,  -3.13678347e+01,\n        -3.14961855e+01,  -3.16226689e+01,  -3.17473385e+01,\n        -3.18702455e+01,  -3.19914390e+01,  -3.21109661e+01,\n        -3.22288719e+01,  -3.23451999e+01,  -3.24599916e+01,\n        -3.25732871e+01,  -3.26851249e+01,  -3.27955419e+01,\n        -3.29045738e+01,  -3.30122549e+01,  -3.31186182e+01,\n        -3.32236956e+01,  -3.33275178e+01,  -3.34301144e+01,\n        -3.35315139e+01,  -3.36317440e+01,  -3.37308314e+01,\n        -3.38288017e+01,  -3.39256798e+01,  -3.40214899e+01,\n        -3.41162552e+01,  -3.42099983e+01,  -3.43027409e+01,\n        -3.43945042e+01,  -3.44853086e+01,  -3.45751739e+01,\n        -3.46641194e+01,  -3.47521638e+01,  -3.48393249e+01,\n        -3.49256205e+01,  -3.50110675e+01,  -3.50956825e+01,\n        -3.51794814e+01,  -3.52624799e+01,  -3.53446931e+01,\n        -3.54261357e+01,  -3.55068221e+01,  -3.55867661e+01,\n        -3.56659812e+01,  -3.64927727e+01,  -3.71816973e+01,\n        -3.78199839e+01,  -3.84145684e+01,  -3.89710525e+01,\n        -3.94940257e+01,  -3.99872953e+01,  -4.04540545e+01,\n        -4.08970077e+01,  -4.13184658e+01,  -4.17204185e+01,\n        -4.21045915e+01,  -4.24724912e+01,  -4.28254404e+01,\n        -4.31646068e+01,  -4.34910263e+01,  -4.38056226e+01,\n        -4.41092221e+01,  -4.44025678e+01,  -4.46863296e+01,\n        -4.49611141e+01,  -4.52274718e+01,  -4.54859043e+01,\n        -4.57368695e+01,  -4.59807868e+01,  -4.62180413e+01,\n        -4.64489874e+01,  -4.66739518e+01,  -4.68932366e+01,\n        -4.71071215e+01,  -4.73158661e+01,  -4.75197116e+01,\n        -4.77188827e+01,  -4.79135891e+01,  -4.81040264e+01,\n        -4.82903780e+01,  -4.84728153e+01,  -4.86514996e+01,\n        -4.88265820e+01,  -4.89982049e+01,  -4.91665024e+01,\n        -4.93316009e+01,  -4.94936198e+01,  -4.96526718e+01,\n        -4.98088637e+01,  -4.99622965e+01,  -5.01130659e+01,\n        -5.02612630e+01,  -5.04069739e+01,  -5.05502807e+01,\n        -5.06912615e+01,  -5.08299905e+01,  -5.09665386e+01,\n        -5.11009733e+01,  -5.12333590e+01,  -5.13637572e+01,\n        -5.14922267e+01,  -5.16188237e+01,  -5.17436021e+01,\n        -5.18666134e+01,  -5.19879068e+01,  -5.21075298e+01,\n        -5.22255277e+01,  -5.23419440e+01,  -5.24568207e+01,\n        -5.25701978e+01,  -5.26821141e+01,  -5.27926067e+01,\n        -5.29017114e+01,  -5.30094626e+01,  -5.31158935e+01,\n        -5.32210360e+01,  -5.33249210e+01,  -5.34275782e+01,\n        -5.35290363e+01,  -5.36293229e+01,  -5.37284648e+01,\n        -5.38264879e+01,  -5.39234171e+01,  -5.40192766e+01,\n        -5.41140897e+01,  -5.42078790e+01,  -5.43006664e+01,\n        -5.43924730e+01,  -5.44833194e+01,  -5.45732255e+01,\n        -5.46622105e+01,  -5.47502932e+01,  -5.48374915e+01,\n        -5.49238232e+01,  -5.50093052e+01,  -5.50939542e+01,\n        -5.51777861e+01,  -5.52608167e+01,  -5.53430611e+01,\n        -5.54245340e+01,  -5.55052499e+01,  -5.55852225e+01,\n        -5.56644656e+01,  -5.64915198e+01,  -5.71806281e+01,\n        -5.78190609e+01,  -5.84137635e+01,  -5.89703444e+01,\n        -5.94933979e+01,  -5.99867349e+01,  -6.04535512e+01,\n        -6.08965533e+01,  -6.13180534e+01,  -6.17200425e+01,\n        -6.21042474e+01,  -6.24721751e+01,  -6.28251489e+01,\n        -6.31643371e+01,  -6.34907762e+01,  -6.38053900e+01,\n        -6.41090052e+01,  -6.44023650e+01,  -6.46861397e+01,\n        -6.49609358e+01,  -6.52273042e+01,  -6.54857463e+01,\n        -6.57367203e+01,  -6.59806458e+01,  -6.62179079e+01,\n        -6.64488609e+01,  -6.66738317e+01,  -6.68931224e+01,\n        -6.71070128e+01,  -6.73157624e+01,  -6.75196127e+01,\n        -6.77187883e+01,  -6.79134988e+01,  -6.81039400e+01,\n        -6.82902951e+01,  -6.84727359e+01,  -6.86514233e+01,\n        -6.88265088e+01,  -6.89981345e+01,  -6.91664347e+01,\n        -6.93315358e+01,  -6.94935570e+01,  -6.96526113e+01,\n        -6.98088053e+01,  -6.99622401e+01,  -7.01130115e+01,\n        -7.02612104e+01,  -7.04069230e+01,  -7.05502315e+01,\n        -7.06912138e+01,  -7.08299444e+01,  -7.09664939e+01,\n        -7.11009299e+01,  -7.12333169e+01,  -7.13637164e+01,\n        -7.14921871e+01,  -7.16187853e+01,  -7.17435647e+01,\n        -7.18665770e+01,  -7.19878715e+01,  -7.21074954e+01,\n        -7.22254942e+01,  -7.23419114e+01,  -7.24567889e+01,\n        -7.25701669e+01,  -7.26820840e+01,  -7.27925773e+01,\n        -7.29016828e+01,  -7.30094347e+01,  -7.31158662e+01,\n        -7.32210094e+01,  -7.33248950e+01,  -7.34275528e+01,\n        -7.35290115e+01,  -7.36292987e+01,  -7.37284412e+01,\n        -7.38264648e+01,  -7.39233945e+01,  -7.40192545e+01,\n        -7.41140680e+01,  -7.42078578e+01,  -7.43006456e+01,\n        -7.43924527e+01,  -7.44832995e+01,  -7.45732060e+01,\n        -7.46621914e+01,  -7.47502745e+01,  -7.48374732e+01,\n        -7.49238052e+01,  -7.50092876e+01,  -7.50939369e+01,\n        -7.51777692e+01,  -7.52608001e+01,  -7.53430448e+01,\n        -7.54245180e+01,  -7.55052341e+01,  -7.55852071e+01,\n        -7.56644504e+01]) is not JSON serializable"
p3
sS'layer'
p4
S'/home/bsmith/git/webcad/web2py/applications/webcad_blog/views/generic.json'
p5
sS'code'
p6
S"from gluon.serializers import json\nresponse.write(XML(json(response._vars)))\nresponse.write('\\n', escape=False)"
p7
sS'snapshot'
p8
(dp9
S'exception'
p10
(dp11
S'__hash__'
p12
S"<method-wrapper '__hash__' of exceptions.TypeError object>"
p13
sS'__setattr__'
p14
S"<method-wrapper '__setattr__' of exceptions.TypeError object>"
p15
sS'__reduce_ex__'
p16
S'<built-in method __reduce_ex__ of exceptions.TypeError object>'
p17
sS'__getslice__'
p18
S"<method-wrapper '__getslice__' of exceptions.TypeError object>"
p19
sS'__getitem__'
p20
S"<method-wrapper '__getitem__' of exceptions.TypeError object>"
p21
sS'__setstate__'
p22
S'<built-in method __setstate__ of exceptions.TypeError object>'
p23
sS'args'
p24
S"('array([  5.56650220e+01,   5.49164950e+01,   5.4...       -7.56644504e+01]) is not JSON serializable',)"
p25
sS'__reduce__'
p26
S'<built-in method __reduce__ of exceptions.TypeError object>'
p27
sS'__str__'
p28
S"<method-wrapper '__str__' of exceptions.TypeError object>"
p29
sS'__format__'
p30
S'<built-in method __format__ of exceptions.TypeError object>'
p31
sS'__getattribute__'
p32
S"<method-wrapper '__getattribute__' of exceptions.TypeError object>"
p33
sS'__class__'
p34
S"<type 'exceptions.TypeError'>"
p35
sS'__unicode__'
p36
S'<built-in method __unicode__ of exceptions.TypeError object>'
p37
sS'__delattr__'
p38
S"<method-wrapper '__delattr__' of exceptions.TypeError object>"
p39
sS'__subclasshook__'
p40
S'<built-in method __subclasshook__ of type object>'
p41
sS'__repr__'
p42
S"<method-wrapper '__repr__' of exceptions.TypeError object>"
p43
sS'__dict__'
p44
S'{}'
p45
sS'__sizeof__'
p46
S'<built-in method __sizeof__ of exceptions.TypeError object>'
p47
sS'__doc__'
p48
S"'Inappropriate argument type.'"
p49
sS'__init__'
p50
S"<method-wrapper '__init__' of exceptions.TypeError object>"
p51
sS'__new__'
p52
S'<built-in method __new__ of type object>'
p53
ssS'evalue'
p54
S'array([  5.56650220e+01,   5.49164950e+01,   5.42273881e+01,\n         5.35889573e+01,   5.29942572e+01,   5.24376794e+01,\n         5.19146292e+01,   5.14212961e+01,   5.09544840e+01,\n         5.05114864e+01,   5.00899912e+01,   4.96880072e+01,\n         4.93038078e+01,   4.89358858e+01,   4.85829180e+01,\n         4.82437361e+01,   4.79173036e+01,   4.76026968e+01,\n         4.72990887e+01,   4.70057362e+01,   4.67219693e+01,\n         4.64471811e+01,   4.61808210e+01,   4.59223874e+01,\n         4.56714221e+01,   4.54275056e+01,   4.51902528e+01,\n         4.49593094e+01,   4.47343484e+01,   4.45150677e+01,\n         4.43011877e+01,   4.40924486e+01,   4.38886091e+01,\n         4.36894447e+01,   4.34947455e+01,   4.33043159e+01,\n         4.31179726e+01,   4.29355440e+01,   4.27568689e+01,\n         4.25817962e+01,   4.24101833e+01,   4.22418963e+01,\n         4.20768086e+01,   4.19148010e+01,   4.17557607e+01,\n         4.15995808e+01,   4.14461605e+01,   4.12954038e+01,\n         4.11472199e+01,   4.10015225e+01,   4.08582295e+01,\n         4.07172628e+01,   4.05785483e+01,   4.04420150e+01,\n         4.03075954e+01,   4.01752252e+01,   4.00448428e+01,\n         3.99163893e+01,   3.97898086e+01,   3.96650469e+01,\n         3.95420527e+01,   3.94207765e+01,   3.93011711e+01,\n         3.91831911e+01,   3.90667929e+01,   3.89519347e+01,\n         3.88385763e+01,   3.87266790e+01,   3.86162057e+01,\n         3.85071206e+01,   3.83993893e+01,   3.82929786e+01,\n         3.81878565e+01,   3.80839922e+01,   3.79813560e+01,\n         3.78799192e+01,   3.77796542e+01,   3.76805340e+01,\n         3.75825330e+01,   3.74856262e+01,   3.73897894e+01,\n         3.72949992e+01,   3.72012331e+01,   3.71084692e+01,\n         3.70166862e+01,   3.69258638e+01,   3.68359820e+01,\n         3.67470215e+01,   3.66589636e+01,   3.65717903e+01,\n         3.64854840e+01,   3.64000276e+01,   3.63154045e+01,\n         3.62315986e+01,   3.61485944e+01,   3.60663767e+01,\n         3.59849307e+01,   3.59042420e+01,   3.58242968e+01,\n         3.57450815e+01,   3.49183492e+01,   3.42295609e+01,\n         3.35914740e+01,   3.29971431e+01,   3.24409595e+01,\n         3.19183288e+01,   3.14254403e+01,   3.09590979e+01,\n         3.05165952e+01,   3.00956199e+01,   2.96941810e+01,\n         2.93105518e+01,   2.89432250e+01,   2.85908774e+01,\n         2.82523406e+01,   2.79265783e+01,   2.76126666e+01,\n         2.73097786e+01,   2.70171711e+01,   2.67341739e+01,\n         2.64601805e+01,   2.61946398e+01,   2.59370505e+01,\n         2.56869542e+01,   2.54439315e+01,   2.52075972e+01,\n         2.49775968e+01,   2.47536035e+01,   2.45353152e+01,\n         2.43224520e+01,   2.41147543e+01,   2.39119807e+01,\n         2.37139065e+01,   2.35203221e+01,   2.33310315e+01,\n         2.31458516e+01,   2.29646106e+01,   2.27871475e+01,\n         2.26133108e+01,   2.24429582e+01,   2.22759554e+01,\n         2.21121762e+01,   2.19515010e+01,   2.17938170e+01,\n         2.16390174e+01,   2.14870012e+01,   2.13376725e+01,\n         2.11909403e+01,   2.10467183e+01,   2.09049243e+01,\n         2.07654804e+01,   2.06283121e+01,   2.04933485e+01,\n         2.03605222e+01,   2.02297685e+01,   2.01010260e+01,\n         1.99742357e+01,   1.98493414e+01,   1.97262893e+01,\n         1.96050277e+01,   1.94855073e+01,   1.93676805e+01,\n         1.92515021e+01,   1.91369284e+01,   1.90239175e+01,\n         1.89124290e+01,   1.88024244e+01,   1.86938664e+01,\n         1.85867191e+01,   1.84809480e+01,   1.83765200e+01,\n         1.82734029e+01,   1.81715659e+01,   1.80709791e+01,\n         1.79716139e+01,   1.78734425e+01,   1.77764381e+01,\n         1.76805746e+01,   1.75858272e+01,   1.74921716e+01,\n         1.73995844e+01,   1.73080428e+01,   1.72175250e+01,\n         1.71280097e+01,   1.70394762e+01,   1.69519048e+01,\n         1.68652759e+01,   1.67795708e+01,   1.66947714e+01,\n         1.66108600e+01,   1.65278195e+01,   1.64456332e+01,\n         1.63642849e+01,   1.62837590e+01,   1.62040402e+01,\n         1.61251137e+01,   1.60469650e+01,   1.59695802e+01,\n         1.58929455e+01,   1.50959186e+01,   1.44361663e+01,\n         1.38289601e+01,   1.32672652e+01,   1.27453817e+01,\n         1.22586230e+01,   1.18030854e+01,   1.13754804e+01,\n         1.09730093e+01,   1.05932691e+01,   1.02341793e+01,\n         9.89392588e+00,   9.57091640e+00,   9.26374491e+00,\n         8.97116327e+00,   8.69205802e+00,   8.42543142e+00,\n         8.17038579e+00,   7.92611048e+00,   7.69187092e+00,\n         7.46699943e+00,   7.25088736e+00,   7.04297842e+00,\n         6.84276295e+00,   6.64977292e+00,   6.46357764e+00,\n         6.28378004e+00,   6.11001333e+00,   5.94193814e+00,\n         5.77923996e+00,   5.62162690e+00,   5.46882765e+00,\n         5.32058970e+00,   5.17667775e+00,   5.03687227e+00,\n         4.90096818e+00,   4.76877373e+00,   4.64010942e+00,\n         4.51480704e+00,   4.39270881e+00,   4.27366662e+00,\n         4.15754129e+00,   4.04420191e+00,   3.93352526e+00,\n         3.82539525e+00,   3.71970243e+00,   3.61634354e+00,\n         3.51522105e+00,   3.41624283e+00,   3.31932171e+00,\n         3.22437525e+00,   3.13132535e+00,   3.04009802e+00,\n         2.95062309e+00,   2.86283399e+00,   2.77666751e+00,\n         2.69206362e+00,   2.60896523e+00,   2.52731806e+00,\n         2.44707045e+00,   2.36817320e+00,   2.29057945e+00,\n         2.21424452e+00,   2.13912579e+00,   2.06518261e+00,\n         1.99237615e+00,   1.92066932e+00,   1.85002667e+00,\n         1.78041433e+00,   1.71179986e+00,   1.64415223e+00,\n         1.57744174e+00,   1.51163991e+00,   1.44671946e+00,\n         1.38265425e+00,   1.31941916e+00,   1.25699014e+00,\n         1.19534405e+00,   1.13445870e+00,   1.07431275e+00,\n         1.01488570e+00,   9.56157824e-01,   8.98110161e-01,\n         8.40724456e-01,   7.83983136e-01,   7.27869280e-01,\n         6.72366584e-01,   6.17459338e-01,   5.63132395e-01,\n         5.09371150e-01,   4.56161511e-01,   4.03489879e-01,\n         3.51343130e-01,   2.99708587e-01,   2.48574007e-01,\n         1.97927559e-01,   1.47757809e-01,   9.80537018e-02,\n         4.88045464e-02,  -4.65644531e-01,  -8.96085954e-01,\n        -1.29762161e+00,  -1.67500977e+00,  -2.03191599e+00,\n        -2.37121201e+00,  -2.69518123e+00,  -3.00566342e+00,\n        -3.30415864e+00,  -3.59190343e+00,  -3.86992742e+00,\n        -4.13909607e+00,  -4.40014339e+00,  -4.65369720e+00,\n        -4.90029881e+00,  -5.14041864e+00,  -5.37446848e+00,\n        -5.60281144e+00,  -5.82576981e+00,  -6.04363157e+00,\n        -6.25665562e+00,  -6.46507603e+00,  -6.66910563e+00,\n        -6.86893891e+00,  -7.06475445e+00,  -7.25671696e+00,\n        -7.44497898e+00,  -7.62968230e+00,  -7.81095920e+00,\n        -7.98893346e+00,  -8.16372126e+00,  -8.33543193e+00,\n        -8.50416861e+00,  -8.67002879e+00,  -8.83310485e+00,\n        -8.99348445e+00,  -9.15125092e+00,  -9.30648360e+00,\n        -9.45925815e+00,  -9.60964677e+00,  -9.75771847e+00,\n        -9.90353930e+00,  -1.00471725e+01,  -1.01886786e+01,\n        -1.03281159e+01,  -1.04655401e+01,  -1.06010050e+01,\n        -1.07345620e+01,  -1.08662608e+01,  -1.09961491e+01,\n        -1.11242730e+01,  -1.12506768e+01,  -1.13754033e+01,\n        -1.14984935e+01,  -1.16199874e+01,  -1.17399234e+01,\n        -1.18583385e+01,  -1.19752686e+01,  -1.20907483e+01,\n        -1.22048111e+01,  -1.23174895e+01,  -1.24288147e+01,\n        -1.25388172e+01,  -1.26475263e+01,  -1.27549704e+01,\n        -1.28611772e+01,  -1.29661733e+01,  -1.30699846e+01,\n        -1.31726363e+01,  -1.32741528e+01,  -1.33745575e+01,\n        -1.34738736e+01,  -1.35721232e+01,  -1.36693279e+01,\n        -1.37655087e+01,  -1.38606861e+01,  -1.39548798e+01,\n        -1.40481091e+01,  -1.41403927e+01,  -1.42317488e+01,\n        -1.43221951e+01,  -1.44117488e+01,  -1.45004267e+01,\n        -1.45882450e+01,  -1.46752197e+01,  -1.47613661e+01,\n        -1.48466993e+01,  -1.49312340e+01,  -1.50149844e+01,\n        -1.50979644e+01,  -1.51801877e+01,  -1.52616673e+01,\n        -1.53424162e+01,  -1.54224469e+01,  -1.55017717e+01,\n        -1.55804025e+01,  -1.56583510e+01,  -1.57356285e+01,\n        -1.58122461e+01,  -1.66144136e+01,  -1.72859372e+01,\n        -1.79102829e+01,  -1.84935315e+01,  -1.90406772e+01,\n        -1.95558683e+01,  -2.00425861e+01,  -2.05037783e+01,\n        -2.09419621e+01,  -2.13593034e+01,  -2.17576784e+01,\n        -2.21387229e+01,  -2.25038713e+01,  -2.28543882e+01,\n        -2.31913939e+01,  -2.35158855e+01,  -2.38287544e+01,\n        -2.41308002e+01,  -2.44227434e+01,  -2.47052349e+01,\n        -2.49788652e+01,  -2.52441712e+01,  -2.55016426e+01,\n        -2.57517273e+01,  -2.59948359e+01,  -2.62313459e+01,\n        -2.64616051e+01,  -2.66859344e+01,  -2.69046308e+01,\n        -2.71179696e+01,  -2.73262063e+01,  -2.75295788e+01,\n        -2.77283087e+01,  -2.79226027e+01,  -2.81126541e+01,\n        -2.82986440e+01,  -2.84807420e+01,  -2.86591073e+01,\n        -2.88338896e+01,  -2.90052299e+01,  -2.91732608e+01,\n        -2.93381076e+01,  -2.94998886e+01,  -2.96587155e+01,\n        -2.98146942e+01,  -2.99679249e+01,  -3.01185025e+01,\n        -3.02665174e+01,  -3.04120551e+01,  -3.05551972e+01,\n        -3.06960211e+01,  -3.08346007e+01,  -3.09710063e+01,\n        -3.11053049e+01,  -3.12375607e+01,  -3.13678347e+01,\n        -3.14961855e+01,  -3.16226689e+01,  -3.17473385e+01,\n        -3.18702455e+01,  -3.19914390e+01,  -3.21109661e+01,\n        -3.22288719e+01,  -3.23451999e+01,  -3.24599916e+01,\n        -3.25732871e+01,  -3.26851249e+01,  -3.27955419e+01,\n        -3.29045738e+01,  -3.30122549e+01,  -3.31186182e+01,\n        -3.32236956e+01,  -3.33275178e+01,  -3.34301144e+01,\n        -3.35315139e+01,  -3.36317440e+01,  -3.37308314e+01,\n        -3.38288017e+01,  -3.39256798e+01,  -3.40214899e+01,\n        -3.41162552e+01,  -3.42099983e+01,  -3.43027409e+01,\n        -3.43945042e+01,  -3.44853086e+01,  -3.45751739e+01,\n        -3.46641194e+01,  -3.47521638e+01,  -3.48393249e+01,\n        -3.49256205e+01,  -3.50110675e+01,  -3.50956825e+01,\n        -3.51794814e+01,  -3.52624799e+01,  -3.53446931e+01,\n        -3.54261357e+01,  -3.55068221e+01,  -3.55867661e+01,\n        -3.56659812e+01,  -3.64927727e+01,  -3.71816973e+01,\n        -3.78199839e+01,  -3.84145684e+01,  -3.89710525e+01,\n        -3.94940257e+01,  -3.99872953e+01,  -4.04540545e+01,\n        -4.08970077e+01,  -4.13184658e+01,  -4.17204185e+01,\n        -4.21045915e+01,  -4.24724912e+01,  -4.28254404e+01,\n        -4.31646068e+01,  -4.34910263e+01,  -4.38056226e+01,\n        -4.41092221e+01,  -4.44025678e+01,  -4.46863296e+01,\n        -4.49611141e+01,  -4.52274718e+01,  -4.54859043e+01,\n        -4.57368695e+01,  -4.59807868e+01,  -4.62180413e+01,\n        -4.64489874e+01,  -4.66739518e+01,  -4.68932366e+01,\n        -4.71071215e+01,  -4.73158661e+01,  -4.75197116e+01,\n        -4.77188827e+01,  -4.79135891e+01,  -4.81040264e+01,\n        -4.82903780e+01,  -4.84728153e+01,  -4.86514996e+01,\n        -4.88265820e+01,  -4.89982049e+01,  -4.91665024e+01,\n        -4.93316009e+01,  -4.94936198e+01,  -4.96526718e+01,\n        -4.98088637e+01,  -4.99622965e+01,  -5.01130659e+01,\n        -5.02612630e+01,  -5.04069739e+01,  -5.05502807e+01,\n        -5.06912615e+01,  -5.08299905e+01,  -5.09665386e+01,\n        -5.11009733e+01,  -5.12333590e+01,  -5.13637572e+01,\n        -5.14922267e+01,  -5.16188237e+01,  -5.17436021e+01,\n        -5.18666134e+01,  -5.19879068e+01,  -5.21075298e+01,\n        -5.22255277e+01,  -5.23419440e+01,  -5.24568207e+01,\n        -5.25701978e+01,  -5.26821141e+01,  -5.27926067e+01,\n        -5.29017114e+01,  -5.30094626e+01,  -5.31158935e+01,\n        -5.32210360e+01,  -5.33249210e+01,  -5.34275782e+01,\n        -5.35290363e+01,  -5.36293229e+01,  -5.37284648e+01,\n        -5.38264879e+01,  -5.39234171e+01,  -5.40192766e+01,\n        -5.41140897e+01,  -5.42078790e+01,  -5.43006664e+01,\n        -5.43924730e+01,  -5.44833194e+01,  -5.45732255e+01,\n        -5.46622105e+01,  -5.47502932e+01,  -5.48374915e+01,\n        -5.49238232e+01,  -5.50093052e+01,  -5.50939542e+01,\n        -5.51777861e+01,  -5.52608167e+01,  -5.53430611e+01,\n        -5.54245340e+01,  -5.55052499e+01,  -5.55852225e+01,\n        -5.56644656e+01,  -5.64915198e+01,  -5.71806281e+01,\n        -5.78190609e+01,  -5.84137635e+01,  -5.89703444e+01,\n        -5.94933979e+01,  -5.99867349e+01,  -6.04535512e+01,\n        -6.08965533e+01,  -6.13180534e+01,  -6.17200425e+01,\n        -6.21042474e+01,  -6.24721751e+01,  -6.28251489e+01,\n        -6.31643371e+01,  -6.34907762e+01,  -6.38053900e+01,\n        -6.41090052e+01,  -6.44023650e+01,  -6.46861397e+01,\n        -6.49609358e+01,  -6.52273042e+01,  -6.54857463e+01,\n        -6.57367203e+01,  -6.59806458e+01,  -6.62179079e+01,\n        -6.64488609e+01,  -6.66738317e+01,  -6.68931224e+01,\n        -6.71070128e+01,  -6.73157624e+01,  -6.75196127e+01,\n        -6.77187883e+01,  -6.79134988e+01,  -6.81039400e+01,\n        -6.82902951e+01,  -6.84727359e+01,  -6.86514233e+01,\n        -6.88265088e+01,  -6.89981345e+01,  -6.91664347e+01,\n        -6.93315358e+01,  -6.94935570e+01,  -6.96526113e+01,\n        -6.98088053e+01,  -6.99622401e+01,  -7.01130115e+01,\n        -7.02612104e+01,  -7.04069230e+01,  -7.05502315e+01,\n        -7.06912138e+01,  -7.08299444e+01,  -7.09664939e+01,\n        -7.11009299e+01,  -7.12333169e+01,  -7.13637164e+01,\n        -7.14921871e+01,  -7.16187853e+01,  -7.17435647e+01,\n        -7.18665770e+01,  -7.19878715e+01,  -7.21074954e+01,\n        -7.22254942e+01,  -7.23419114e+01,  -7.24567889e+01,\n        -7.25701669e+01,  -7.26820840e+01,  -7.27925773e+01,\n        -7.29016828e+01,  -7.30094347e+01,  -7.31158662e+01,\n        -7.32210094e+01,  -7.33248950e+01,  -7.34275528e+01,\n        -7.35290115e+01,  -7.36292987e+01,  -7.37284412e+01,\n        -7.38264648e+01,  -7.39233945e+01,  -7.40192545e+01,\n        -7.41140680e+01,  -7.42078578e+01,  -7.43006456e+01,\n        -7.43924527e+01,  -7.44832995e+01,  -7.45732060e+01,\n        -7.46621914e+01,  -7.47502745e+01,  -7.48374732e+01,\n        -7.49238052e+01,  -7.50092876e+01,  -7.50939369e+01,\n        -7.51777692e+01,  -7.52608001e+01,  -7.53430448e+01,\n        -7.54245180e+01,  -7.55052341e+01,  -7.55852071e+01,\n        -7.56644504e+01]) is not JSON serializable'
p55
sS'request'
p56
cgluon.html
XML_unpickle
p57
(S's\nj\x00\x00<div><table><tr><td style="font-weight:bold;vertical-align:top;">ajax</td><td style="vertical-align:top;">:</td><td><div>True</div></td></tr><tr><td style="font-weight:bold;vertical-align:top;">application</td><td style="vertical-align:top;">:</td><td><div>webcad_blog</div></td></tr><tr><td style="font-weight:bold;vertical-align:top;">args</td><td style="vertical-align:top;">:</td><td><div><table></table></div></td></tr><tr><td style="font-weight:bold;vertical-align:top;">cid</td><td style="vertical-align:top;">:</td><td><div>None</div></td></tr><tr><td style="font-weight:bold;vertical-align:top;">client</td><td style="vertical-align:top;">:</td><td><div>127.0.0.1</div></td></tr><tr><td style="font-weight:bold;vertical-align:top;">controller</td><td style="vertical-align:top;">:</td><td><div>pll_calcs</div></td></tr><tr><td style="font-weight:bold;vertical-align:top;">cookies</td><td style="vertical-align:top;">:</td><td><div><table><tr><td style="font-weight:bold;vertical-align:top;">session_id_admin</td><td style="vertical-align:top;">:</td><td><div>127.0.0.1-f25f7aa0-3048-49f1-a82f-55d2ab55e1cf<table><tr><td style="font-weight:bold;vertical-align:top;">comment</td><td style="vertical-align:top;">:</td><td><div></div></td></tr><tr><td style="font-weight:bold;vertical-align:top;">domain</td><td style="vertical-align:top;">:</td><td><div></div></td></tr><tr><td style="font-weight:bold;vertical-align:top;">expires</td><td style="vertical-align:top;">:</td><td><div></div></td></tr><tr><td style="font-weight:bold;vertical-align:top;">httponly</td><td style="vertical-align:top;">:</td><td><div></div></td></tr><tr><td style="font-weight:bold;vertical-align:top;">max-age</td><td style="vertical-align:top;">:</td><td><div></div></td></tr><tr><td style="font-weight:bold;vertical-align:top;">path</td><td style="vertical-align:top;">:</td><td><div></div></td></tr><tr><td style="font-weight:bold;vertical-align:top;">secure</td><td style="vertical-align:top;">:</td><td><div></div></td></tr><tr><td style="font-weight:bold;vertical-align:top;">version</td><td style="vertical-align:top;">:</td><td><div></div></td></tr></table></div></td></tr><tr><td style="font-weight:bold;vertical-align:top;">session_id_myapp</td><td style="vertical-align:top;">:</td><td><div>127.0.0.1-ed658642-b403-487a-92c1-e01bef6eec54<table><tr><td style="font-weight:bold;vertical-align:top;">comment</td><td style="vertical-align:top;">:</td><td><div></div></td></tr><tr><td style="font-weight:bold;vertical-align:top;">domain</td><td style="vertical-align:top;">:</td><td><div></div></td></tr><tr><td style="font-weight:bold;vertical-align:top;">expires</td><td style="vertical-align:top;">:</td><td><div></div></td></tr><tr><td style="font-weight:bold;vertical-align:top;">httponly</td><td style="vertical-align:top;">:</td><td><div></div></td></tr><tr><td style="font-weight:bold;vertical-align:top;">max-age</td><td style="vertical-align:top;">:</td><td><div></div></td></tr><tr><td style="font-weight:bold;vertical-align:top;">path</td><td style="vertical-align:top;">:</td><td><div></div></td></tr><tr><td style="font-weight:bold;vertical-align:top;">secure</td><td style="vertical-align:top;">:</td><td><div></div></td></tr><tr><td style="font-weight:bold;vertical-align:top;">version</td><td style="vertical-align:top;">:</td><td><div></div></td></tr></table></div></td></tr><tr><td style="font-weight:bold;vertical-align:top;">session_id_pll_designer</td><td style="vertical-align:top;">:</td><td><div>127.0.0.1-de8feb66-0459-407d-86d3-db9c46208f19<table><tr><td style="font-weight:bold;vertical-align:top;">comment</td><td style="vertical-align:top;">:</td><td><div></div></td></tr><tr><td style="font-weight:bold;vertical-align:top;">domain</td><td style="vertical-align:top;">:</td><td><div></div></td></tr><tr><td style="font-weight:bold;vertical-align:top;">expires</td><td style="vertical-align:top;">:</td><td><div></div></td></tr><tr><td style="font-weight:bold;vertical-align:top;">httponly</td><td style="vertical-align:top;">:</td><td><div></div></td></tr><tr><td style="font-weight:bold;vertical-align:top;">max-age</td><td style="vertical-align:top;">:</td><td><div></div></td></tr><tr><td style="font-weight:bold;vertical-align:top;">path</td><td style="vertical-align:top;">:</td><td><div></div></td></tr><tr><td style="font-weight:bold;vertical-align:top;">secure</td><td style="vertical-align:top;">:</td><td><div></div></td></tr><tr><td style="font-weight:bold;vertical-align:top;">version</td><td style="vertical-align:top;">:</td><td><div></div></td></tr></table></div></td></tr><tr><td style="font-weight:bold;vertical-align:top;">session_id_webcad_blog</td><td style="vertical-align:top;">:</td><td><div>127.0.0.1-cf2e7846-b710-4a4e-be1c-bbdac07e18b3<table><tr><td style="font-weight:bold;vertical-align:top;">comment</td><td style="vertical-align:top;">:</td><td><div></div></td></tr><tr><td style="font-weight:bold;vertical-align:top;">domain</td><td style="vertical-align:top;">:</td><td><div></div></td></tr><tr><td style="font-weight:bold;vertical-align:top;">expires</td><td style="vertical-align:top;">:</td><td><div></div></td></tr><tr><td style="font-weight:bold;vertical-align:top;">httponly</td><td style="vertical-align:top;">:</td><td><div></div></td></tr><tr><td style="font-weight:bold;vertical-align:top;">max-age</td><td style="vertical-align:top;">:</td><td><div></div></td></tr><tr><td style="font-weight:bold;vertical-align:top;">path</td><td style="vertical-align:top;">:</td><td><div></div></td></tr><tr><td style="font-weight:bold;vertical-align:top;">secure</td><td style="vertical-align:top;">:</td><td><div></div></td></tr><tr><td style="font-weight:bold;vertical-align:top;">version</td><td style="vertical-align:top;">:</td><td><div></div></td></tr></table></div></td></tr><tr><td style="font-weight:bold;vertical-align:top;">session_id_welcome</td><td style="vertical-align:top;">:</td><td><div>127.0.0.1-dceb2be8-b93a-43ca-931f-187d3bded016<table><tr><td style="font-weight:bold;vertical-align:top;">comment</td><td style="vertical-align:top;">:</td><td><div></div></td></tr><tr><td style="font-weight:bold;vertical-align:top;">domain</td><td style="vertical-align:top;">:</td><td><div></div></td></tr><tr><td style="font-weight:bold;vertical-align:top;">expires</td><td style="vertical-align:top;">:</td><td><div></div></td></tr><tr><td style="font-weight:bold;vertical-align:top;">httponly</td><td style="vertical-align:top;">:</td><td><div></div></td></tr><tr><td style="font-weight:bold;vertical-align:top;">max-age</td><td style="vertical-align:top;">:</td><td><div></div></td></tr><tr><td style="font-weight:bold;vertical-align:top;">path</td><td style="vertical-align:top;">:</td><td><div></div></td></tr><tr><td style="font-weight:bold;vertical-align:top;">secure</td><td style="vertical-align:top;">:</td><td><div></div></td></tr><tr><td style="font-weight:bold;vertical-align:top;">version</td><td style="vertical-align:top;">:</td><td><div></div></td></tr></table></div></td></tr></table></div></td></tr><tr><td style="font-weight:bold;vertical-align:top;">env</td><td style="vertical-align:top;">:</td><td><div><table><tr><td style="font-weight:bold;vertical-align:top;">HTTP_ACCEPT</td><td style="vertical-align:top;">:</td><td><div>*/*</div></td></tr><tr><td style="font-weight:bold;vertical-align:top;">HTTP_ACCEPT_ENCODING</td><td style="vertical-align:top;">:</td><td><div>gzip, deflate, sdch, br</div></td></tr><tr><td style="font-weight:bold;vertical-align:top;">HTTP_ACCEPT_LANGUAGE</td><td style="vertical-align:top;">:</td><td><div>en-US,en;q=0.8</div></td></tr><tr><td style="font-weight:bold;vertical-align:top;">HTTP_CONNECTION</td><td style="vertical-align:top;">:</td><td><div>keep-alive</div></td></tr><tr><td style="font-weight:bold;vertical-align:top;">HTTP_COOKIE</td><td style="vertical-align:top;">:</td><td><div>session_id_pll_designer=127.0.0.1-de8feb66-0459-407d-86d3-db9c46208f19; session_id_myapp=127.0.0.1-ed658642-b403-487a-92c1-e01bef6eec54; session_id_admin=127.0.0.1-f25f7aa0-3048-49f1-a82f-55d2ab55e1cf; session_id_welcome=127.0.0.1-dceb2be8-b93a-43ca-931f-187d3bded016; session_id_webcad_blog=127.0.0.1-cf2e7846-b710-4a4e-be1c-bbdac07e18b3</div></td></tr><tr><td style="font-weight:bold;vertical-align:top;">HTTP_DNT</td><td style="vertical-align:top;">:</td><td><div>1</div></td></tr><tr><td style="font-weight:bold;vertical-align:top;">HTTP_HOST</td><td style="vertical-align:top;">:</td><td><div>127.0.0.1:8000</div></td></tr><tr><td style="font-weight:bold;vertical-align:top;">HTTP_REFERER</td><td style="vertical-align:top;">:</td><td><div>http://127.0.0.1:8000/webcad_blog/default/pll_designer</div></td></tr><tr><td style="font-weight:bold;vertical-align:top;">HTTP_USER_AGENT</td><td style="vertical-align:top;">:</td><td><div>Mozilla/5.0 (X11; Linux x86_64) AppleWebKit/537.36 (KHTML, like Gecko) Chrome/54.0.2840.100 Safari/537.36</div></td></tr><tr><td style="font-weight:bold;vertical-align:top;">HTTP_X_REQUESTED_WITH</td><td style="vertical-align:top;">:</td><td><div>XMLHttpRequest</div></td></tr><tr><td style="font-weight:bold;vertical-align:top;">PATH_INFO</td><td style="vertical-align:top;">:</td><td><div>/webcad_blog/pll_calcs/callSimulatePllOpenLoop.json</div></td></tr><tr><td style="font-weight:bold;vertical-align:top;">QUERY_STRING</td><td style="vertical-align:top;">:</td><td><div>fstart=10&amp;fstop=100000000&amp;ptsPerDec=100&amp;kphi=0.001&amp;kvco=60000000&amp;N=39200&amp;flt_type=passive&amp;c1=1.454799571970489e-10&amp;c2=9.06493599008521e-10&amp;r2=47775.60521685732&amp;c3=0&amp;c4=0&amp;r3=0&amp;r4=0&amp;{}</div></td></tr><tr><td style="font-weight:bold;vertical-align:top;">REMOTE_ADDR</td><td style="vertical-align:top;">:</td><td><div>127.0.0.1</div></td></tr><tr><td style="font-weight:bold;vertical-align:top;">REMOTE_PORT</td><td style="vertical-align:top;">:</td><td><div>39092</div></td></tr><tr><td style="font-weight:bold;vertical-align:top;">REQUEST_METHOD</td><td style="vertical-align:top;">:</td><td><div>GET</div></td></tr><tr><td style="font-weight:bold;vertical-align:top;">SCRIPT_NAME</td><td style="vertical-align:top;">:</td><td><div></div></td></tr><tr><td style="font-weight:bold;vertical-align:top;">SERVER_NAME</td><td style="vertical-align:top;">:</td><td><div>bsmith-Satellite-P775D</div></td></tr><tr><td style="font-weight:bold;vertical-align:top;">SERVER_PORT</td><td style="vertical-align:top;">:</td><td><div>8000</div></td></tr><tr><td style="font-weight:bold;vertical-align:top;">SERVER_PROTOCOL</td><td style="vertical-align:top;">:</td><td><div>HTTP/1.1</div></td></tr><tr><td style="font-weight:bold;vertical-align:top;">SERVER_SOFTWARE</td><td style="vertical-align:top;">:</td><td><div>Rocket 1.2.6</div></td></tr><tr><td style="font-weight:bold;vertical-align:top;">app_folders</td><td style="vertical-align:top;">:</td><td><div>set([&#x27;/home/bsmith/git/webcad/web2py/applications/welcome/&#x27;, &#x27;/home/bsmith/git/webcad/web2py/applications/webcad_blog/&#x27;])</div></td></tr><tr><td style="font-weight:bold;vertical-align:top;">applications_parent</td><td style="vertical-align:top;">:</td><td><div>/home/bsmith/git/webcad/web2py</div></td></tr><tr><td style="font-weight:bold;vertical-align:top;">cmd_args</td><td style="vertical-align:top;">:</td><td><div><table></table></div></td></tr><tr><td style="font-weight:bold;vertical-align:top;">cmd_options</td><td style="vertical-align:top;">:</td><td><div>&lt;Values at 0x7f1f220314d0: {&#x27;verbose&#x27;: False, &#x27;ip&#x27;: &#x27;127.0.0.1&#x27;, &#x27;debuglevel&#x27;: 30, &#x27;with_scheduler&#x27;: False, &#x27;shutdown_timeout&#x27;: 5, &#x27;taskbar&#x27;: False, &#x27;with_coverage&#x27;: False, &#x27;pid_filename&#x27;: &#x27;httpserver.pid&#x27;, &#x27;maxthreads&#x27;: None, &#x27;softcron&#x27;: False, &#x27;server_name&#x27;: &#x27;bsmith-Satellite-P775D&#x27;, &#x27;bpython&#x27;: False, &#x27;nogui&#x27;: False, &#x27;port&#x27;: 8000, &#x27;print_errors&#x27;: False, &#x27;extcron&#x27;: False, &#x27;runcron&#x27;: False, &#x27;run_system_tests&#x27;: False, &#x27;test&#x27;: None, &#x27;folder&#x27;: &#x27;/home/bsmith/git/webcad/web2py&#x27;, &#x27;config&#x27;: &#x27;&#x27;, &#x27;minthreads&#x27;: None, &#x27;shell&#x27;: None, &#x27;run&#x27;: &#x27;&#x27;, &#x27;log_filename&#x27;: &#x27;httpserver.log&#x27;, &#x27;profiler_dir&#x27;: None, &#x27;args&#x27;: [&#x27;&#x27;], &#x27;socket_timeout&#x27;: 5, &#x27;ssl_ca_certificate&#x27;: None, &#x27;scheduler&#x27;: None, &#x27;interfaces&#x27;: None, &#x27;ssl_private_key&#x27;: &#x27;&#x27;, &#x27;gae&#x27;: None, &#x27;password&#x27;: &#x27;******&#x27;, &#x27;request_queue_size&#x27;: 5, &#x27;ssl_certificate&#x27;: &#x27;&#x27;, &#x27;cronjob&#x27;: False, &#x27;numthreads&#x27;: None, &#x27;quiet&#x27;: False, &#x27;import_models&#x27;: False, &#x27;timeout&#x27;: 10, &#x27;plain&#x27;: False, &#x27;nobanner&#x27;: False}&gt;</div></td></tr><tr><td style="font-weight:bold;vertical-align:top;">db_sessions</td><td style="vertical-align:top;">:</td><td><div>set([])</div></td></tr><tr><td style="font-weight:bold;vertical-align:top;">debugging</td><td style="vertical-align:top;">:</td><td><div>False</div></td></tr><tr><td style="font-weight:bold;vertical-align:top;">gluon_parent</td><td style="vertical-align:top;">:</td><td><div>/home/bsmith/git/webcad/web2py</div></td></tr><tr><td style="font-weight:bold;vertical-align:top;">http_accept</td><td style="vertical-align:top;">:</td><td><div>*/*</div></td></tr><tr><td style="font-weight:bold;vertical-align:top;">http_accept_encoding</td><td style="vertical-align:top;">:</td><td><div>gzip, deflate, sdch, br</div></td></tr><tr><td style="font-weight:bold;vertical-align:top;">http_accept_language</td><td style="vertical-align:top;">:</td><td><div>en-US,en;q=0.8</div></td></tr><tr><td style="font-weight:bold;vertical-align:top;">http_connection</td><td style="vertical-align:top;">:</td><td><div>keep-alive</div></td></tr><tr><td style="font-weight:bold;vertical-align:top;">http_cookie</td><td style="vertical-align:top;">:</td><td><div>session_id_pll_designer=127.0.0.1-de8feb66-0459-407d-86d3-db9c46208f19; session_id_myapp=127.0.0.1-ed658642-b403-487a-92c1-e01bef6eec54; session_id_admin=127.0.0.1-f25f7aa0-3048-49f1-a82f-55d2ab55e1cf; session_id_welcome=127.0.0.1-dceb2be8-b93a-43ca-931f-187d3bded016; session_id_webcad_blog=127.0.0.1-cf2e7846-b710-4a4e-be1c-bbdac07e18b3</div></td></tr><tr><td style="font-weight:bold;vertical-align:top;">http_dnt</td><td style="vertical-align:top;">:</td><td><div>1</div></td></tr><tr><td style="font-weight:bold;vertical-align:top;">http_host</td><td style="vertical-align:top;">:</td><td><div>127.0.0.1:8000</div></td></tr><tr><td style="font-weight:bold;vertical-align:top;">http_referer</td><td style="vertical-align:top;">:</td><td><div>http://127.0.0.1:8000/webcad_blog/default/pll_designer</div></td></tr><tr><td style="font-weight:bold;vertical-align:top;">http_user_agent</td><td style="vertical-align:top;">:</td><td><div>Mozilla/5.0 (X11; Linux x86_64) AppleWebKit/537.36 (KHTML, like Gecko) Chrome/54.0.2840.100 Safari/537.36</div></td></tr><tr><td style="font-weight:bold;vertical-align:top;">http_x_requested_with</td><td style="vertical-align:top;">:</td><td><div>XMLHttpRequest</div></td></tr><tr><td style="font-weight:bold;vertical-align:top;">is_jython</td><td style="vertical-align:top;">:</td><td><div>False</div></td></tr><tr><td style="font-weight:bold;vertical-align:top;">is_pypy</td><td style="vertical-align:top;">:</td><td><div>False</div></td></tr><tr><td style="font-weight:bold;vertical-align:top;">is_source</td><td style="vertical-align:top;">:</td><td><div>True</div></td></tr><tr><td style="font-weight:bold;vertical-align:top;">local_hosts</td><td style="vertical-align:top;">:</td><td><div><table><tr><td><div>127.0.1.1</div></td></tr><tr><td><div>::1</div></td></tr><tr><td><div>bsmith-Satellite-P775D</div></td></tr><tr><td><div>::ffff:127.0.0.1</div></td></tr><tr><td><div>127.0.0.1</div></td></tr></table></div></td></tr><tr><td style="font-weight:bold;vertical-align:top;">path_info</td><td style="vertical-align:top;">:</td><td><div>/webcad_blog/pll_calcs/callSimulatePllOpenLoop.json</div></td></tr><tr><td style="font-weight:bold;vertical-align:top;">query_string</td><td style="vertical-align:top;">:</td><td><div>fstart=10&amp;fstop=100000000&amp;ptsPerDec=100&amp;kphi=0.001&amp;kvco=60000000&amp;N=39200&amp;flt_type=passive&amp;c1=1.454799571970489e-10&amp;c2=9.06493599008521e-10&amp;r2=47775.60521685732&amp;c3=0&amp;c4=0&amp;r3=0&amp;r4=0&amp;{}</div></td></tr><tr><td style="font-weight:bold;vertical-align:top;">remote_addr</td><td style="vertical-align:top;">:</td><td><div>127.0.0.1</div></td></tr><tr><td style="font-weight:bold;vertical-align:top;">remote_port</td><td style="vertical-align:top;">:</td><td><div>39092</div></td></tr><tr><td style="font-weight:bold;vertical-align:top;">request_method</td><td style="vertical-align:top;">:</td><td><div>GET</div></td></tr><tr><td style="font-weight:bold;vertical-align:top;">request_uri</td><td style="vertical-align:top;">:</td><td><div>/webcad_blog/pll_calcs/callSimulatePllOpenLoop.json?fstart=10&amp;fstop=100000000&amp;ptsPerDec=100&amp;kphi=0.001&amp;kvco=60000000&amp;N=39200&amp;flt_type=passive&amp;c1=1.454799571970489e-10&amp;c2=9.06493599008521e-10&amp;r2=47775.60521685732&amp;c3=0&amp;c4=0&amp;r3=0&amp;r4=0&amp;{}</div></td></tr><tr><td style="font-weight:bold;vertical-align:top;">script_name</td><td style="vertical-align:top;">:</td><td><div></div></td></tr><tr><td style="font-weight:bold;vertical-align:top;">server_name</td><td style="vertical-align:top;">:</td><td><div>bsmith-Satellite-P775D</div></td></tr><tr><td style="font-weight:bold;vertical-align:top;">server_port</td><td style="vertical-align:top;">:</td><td><div>8000</div></td></tr><tr><td style="font-weight:bold;vertical-align:top;">server_protocol</td><td style="vertical-align:top;">:</td><td><div>HTTP/1.1</div></td></tr><tr><td style="font-weight:bold;vertical-align:top;">server_software</td><td style="vertical-align:top;">:</td><td><div>Rocket 1.2.6</div></td></tr><tr><td style="font-weight:bold;vertical-align:top;">web2py_path</td><td style="vertical-align:top;">:</td><td><div>/home/bsmith/git/webcad/web2py</div></td></tr><tr><td style="font-weight:bold;vertical-align:top;">web2py_version</td><td style="vertical-align:top;">:</td><td><div>2.14.6-stable+timestamp.2016.05.10.00.21.47</div></td></tr><tr><td style="font-weight:bold;vertical-align:top;">wsgi.errors</td><td style="vertical-align:top;">:</td><td><div>&lt;open file &#x27;&lt;stderr&gt;&#x27;, mode &#x27;w&#x27; at 0x7f1f2866a1e0&gt;</div></td></tr><tr><td style="font-weight:bold;vertical-align:top;">wsgi.file_wrapper</td><td style="vertical-align:top;">:</td><td><div>&lt;class wsgiref.util.FileWrapper at 0x7f1f220d1a10&gt;</div></td></tr><tr><td style="font-weight:bold;vertical-align:top;">wsgi.input</td><td style="vertical-align:top;">:</td><td><div>&lt;socket._fileobject object at 0x7f1ee2db5d50&gt;</div></td></tr><tr><td style="font-weight:bold;vertical-align:top;">wsgi.multiprocess</td><td style="vertical-align:top;">:</td><td><div>False</div></td></tr><tr><td style="font-weight:bold;vertical-align:top;">wsgi.multithread</td><td style="vertical-align:top;">:</td><td><div>True</div></td></tr><tr><td style="font-weight:bold;vertical-align:top;">wsgi.run_once</td><td style="vertical-align:top;">:</td><td><div>False</div></td></tr><tr><td style="font-weight:bold;vertical-align:top;">wsgi.url_scheme</td><td style="vertical-align:top;">:</td><td><div>http</div></td></tr><tr><td style="font-weight:bold;vertical-align:top;">wsgi.version</td><td style="vertical-align:top;">:</td><td><div><table><tr><td><div>1</div></td></tr><tr><td><div>0</div></td></tr></table></div></td></tr><tr><td style="font-weight:bold;vertical-align:top;">wsgi_errors</td><td style="vertical-align:top;">:</td><td><div>&lt;open file &#x27;&lt;stderr&gt;&#x27;, mode &#x27;w&#x27; at 0x7f1f2866a1e0&gt;</div></td></tr><tr><td style="font-weight:bold;vertical-align:top;">wsgi_file_wrapper</td><td style="vertical-align:top;">:</td><td><div>&lt;class wsgiref.util.FileWrapper at 0x7f1f220d1a10&gt;</div></td></tr><tr><td style="font-weight:bold;vertical-align:top;">wsgi_input</td><td style="vertical-align:top;">:</td><td><div>&lt;socket._fileobject object at 0x7f1ee2db5d50&gt;</div></td></tr><tr><td style="font-weight:bold;vertical-align:top;">wsgi_multiprocess</td><td style="vertical-align:top;">:</td><td><div>False</div></td></tr><tr><td style="font-weight:bold;vertical-align:top;">wsgi_multithread</td><td style="vertical-align:top;">:</td><td><div>True</div></td></tr><tr><td style="font-weight:bold;vertical-align:top;">wsgi_run_once</td><td style="vertical-align:top;">:</td><td><div>False</div></td></tr><tr><td style="font-weight:bold;vertical-align:top;">wsgi_url_scheme</td><td style="vertical-align:top;">:</td><td><div>http</div></td></tr><tr><td style="font-weight:bold;vertical-align:top;">wsgi_version</td><td style="vertical-align:top;">:</td><td><div><table><tr><td><div>1</div></td></tr><tr><td><div>0</div></td></tr></table></div></td></tr></table></div></td></tr><tr><td style="font-weight:bold;vertical-align:top;">extension</td><td style="vertical-align:top;">:</td><td><div>json</div></td></tr><tr><td style="font-weight:bold;vertical-align:top;">folder</td><td style="vertical-align:top;">:</td><td><div>/home/bsmith/git/webcad/web2py/applications/webcad_blog/</div></td></tr><tr><td style="font-weight:bold;vertical-align:top;">function</td><td style="vertical-align:top;">:</td><td><div>callSimulatePllOpenLoop</div></td></tr><tr><td style="font-weight:bold;vertical-align:top;">global_settings</td><td style="vertical-align:top;">:</td><td><div><table><tr><td style="font-weight:bold;vertical-align:top;">app_folders</td><td style="vertical-align:top;">:</td><td><div>set([&#x27;/home/bsmith/git/webcad/web2py/applications/welcome/&#x27;, &#x27;/home/bsmith/git/webcad/web2py/applications/webcad_blog/&#x27;])</div></td></tr><tr><td style="font-weight:bold;vertical-align:top;">applications_parent</td><td style="vertical-align:top;">:</td><td><div>/home/bsmith/git/webcad/web2py</div></td></tr><tr><td style="font-weight:bold;vertical-align:top;">cmd_args</td><td style="vertical-align:top;">:</td><td><div><table></table></div></td></tr><tr><td style="font-weight:bold;vertical-align:top;">cmd_options</td><td style="vertical-align:top;">:</td><td><div>&lt;Values at 0x7f1f220314d0: {&#x27;verbose&#x27;: False, &#x27;ip&#x27;: &#x27;127.0.0.1&#x27;, &#x27;debuglevel&#x27;: 30, &#x27;with_scheduler&#x27;: False, &#x27;shutdown_timeout&#x27;: 5, &#x27;taskbar&#x27;: False, &#x27;with_coverage&#x27;: False, &#x27;pid_filename&#x27;: &#x27;httpserver.pid&#x27;, &#x27;maxthreads&#x27;: None, &#x27;softcron&#x27;: False, &#x27;server_name&#x27;: &#x27;bsmith-Satellite-P775D&#x27;, &#x27;bpython&#x27;: False, &#x27;nogui&#x27;: False, &#x27;port&#x27;: 8000, &#x27;print_errors&#x27;: False, &#x27;extcron&#x27;: False, &#x27;runcron&#x27;: False, &#x27;run_system_tests&#x27;: False, &#x27;test&#x27;: None, &#x27;folder&#x27;: &#x27;/home/bsmith/git/webcad/web2py&#x27;, &#x27;config&#x27;: &#x27;&#x27;, &#x27;minthreads&#x27;: None, &#x27;shell&#x27;: None, &#x27;run&#x27;: &#x27;&#x27;, &#x27;log_filename&#x27;: &#x27;httpserver.log&#x27;, &#x27;profiler_dir&#x27;: None, &#x27;args&#x27;: [&#x27;&#x27;], &#x27;socket_timeout&#x27;: 5, &#x27;ssl_ca_certificate&#x27;: None, &#x27;scheduler&#x27;: None, &#x27;interfaces&#x27;: None, &#x27;ssl_private_key&#x27;: &#x27;&#x27;, &#x27;gae&#x27;: None, &#x27;password&#x27;: &#x27;******&#x27;, &#x27;request_queue_size&#x27;: 5, &#x27;ssl_certificate&#x27;: &#x27;&#x27;, &#x27;cronjob&#x27;: False, &#x27;numthreads&#x27;: None, &#x27;quiet&#x27;: False, &#x27;import_models&#x27;: False, &#x27;timeout&#x27;: 10, &#x27;plain&#x27;: False, &#x27;nobanner&#x27;: False}&gt;</div></td></tr><tr><td style="font-weight:bold;vertical-align:top;">db_sessions</td><td style="vertical-align:top;">:</td><td><div>set([])</div></td></tr><tr><td style="font-weight:bold;vertical-align:top;">debugging</td><td style="vertical-align:top;">:</td><td><div>False</div></td></tr><tr><td style="font-weight:bold;vertical-align:top;">gluon_parent</td><td style="vertical-align:top;">:</td><td><div>/home/bsmith/git/webcad/web2py</div></td></tr><tr><td style="font-weight:bold;vertical-align:top;">is_jython</td><td style="vertical-align:top;">:</td><td><div>False</div></td></tr><tr><td style="font-weight:bold;vertical-align:top;">is_pypy</td><td style="vertical-align:top;">:</td><td><div>False</div></td></tr><tr><td style="font-weight:bold;vertical-align:top;">is_source</td><td style="vertical-align:top;">:</td><td><div>True</div></td></tr><tr><td style="font-weight:bold;vertical-align:top;">local_hosts</td><td style="vertical-align:top;">:</td><td><div><table><tr><td><div>127.0.1.1</div></td></tr><tr><td><div>::1</div></td></tr><tr><td><div>bsmith-Satellite-P775D</div></td></tr><tr><td><div>::ffff:127.0.0.1</div></td></tr><tr><td><div>127.0.0.1</div></td></tr></table></div></td></tr><tr><td style="font-weight:bold;vertical-align:top;">web2py_version</td><td style="vertical-align:top;">:</td><td><div>2.14.6-stable+timestamp.2016.05.10.00.21.47</div></td></tr></table></div></td></tr><tr><td style="font-weight:bold;vertical-align:top;">is_https</td><td style="vertical-align:top;">:</td><td><div>False</div></td></tr><tr><td style="font-weight:bold;vertical-align:top;">is_local</td><td style="vertical-align:top;">:</td><td><div>True</div></td></tr><tr><td style="font-weight:bold;vertical-align:top;">is_restful</td><td style="vertical-align:top;">:</td><td><div>False</div></td></tr><tr><td style="font-weight:bold;vertical-align:top;">is_scheduler</td><td style="vertical-align:top;">:</td><td><div>False</div></td></tr><tr><td style="font-weight:bold;vertical-align:top;">is_shell</td><td style="vertical-align:top;">:</td><td><div>False</div></td></tr><tr><td style="font-weight:bold;vertical-align:top;">now</td><td style="vertical-align:top;">:</td><td><div>datetime.datetime(2016, 11, 29, 3, 1, 29, 703729)</div></td></tr><tr><td style="font-weight:bold;vertical-align:top;">raw_args</td><td style="vertical-align:top;">:</td><td><div></div></td></tr><tr><td style="font-weight:bold;vertical-align:top;">raw_extension</td><td style="vertical-align:top;">:</td><td><div>json</div></td></tr><tr><td style="font-weight:bold;vertical-align:top;">url</td><td style="vertical-align:top;">:</td><td><div>/webcad_blog/pll_calcs/callSimulatePllOpenLoop.json</div></td></tr><tr><td style="font-weight:bold;vertical-align:top;">utcnow</td><td style="vertical-align:top;">:</td><td><div>datetime.datetime(2016, 11, 29, 9, 1, 29, 703814)</div></td></tr><tr><td style="font-weight:bold;vertical-align:top;">wsgi</td><td style="vertical-align:top;">:</td><td><div>&lt;gluon.main.LazyWSGI object at 0x7f1ee2aad550&gt;</div></td></tr></table></div>'
tRp58
sS'frames'
p59
(lp60
(dp61
S'file'
p62
S'/home/bsmith/git/webcad/web2py/gluon/restricted.py'
p63
sS'dump'
p64
(dp65
S'environment'
p66
S"{'A': <class 'gluon.html.A'>, 'ANY_OF': <class 'gluon.validators.ANY_OF'>, 'ASSIGNJS': <function ASSIGNJS>, 'AppConfig': <function AppConfig>, 'Auth': <class 'gluon.tools.Auth'>, 'B': <class 'gluon.html.B'>, 'BEAUTIFY': <class 'gluon.html.BEAUTIFY'>, 'BODY': <class 'gluon.html.BODY'>, 'BR': <class 'gluon.html.BR'>, 'BUTTON': <class 'gluon.html.BUTTON'>, ...}"
p67
sS'ccode'
p68
S'<code object <module> at 0x7f1ee2ae63b0, file "/...ications/webcad_blog/views/generic.json", line 1>'
p69
ssS'lnum'
p70
I227
sS'lines'
p71
(dp72
I224
S'            ccode = code'
p73
sI225
S'        else:'
p74
sI226
S'            ccode = compile2(code, layer)'
p75
sI227
S'        exec ccode in environment'
p76
sI228
S'    except HTTP:'
p77
sI229
S'        raise'
p78
sI230
S'    except RestrictedError:'
p79
sI231
S'        # do not encapsulate (obfuscate) the original RestrictedError'
p80
sI222
S'    try:'
p81
sI223
S'        if isinstance(code, types.CodeType):'
p82
ssS'call'
p83
S'(code="from gluon.serializers import json\\nresponse.writ...ponse._vars)))\\nresponse.write(\'\\\\n\', escape=False)", environment={\'A\': <class \'gluon.html.A\'>, \'ANY_OF\': <class \'gluon.validators.ANY_OF\'>, \'ASSIGNJS\': <function ASSIGNJS>, \'AppConfig\': <function AppConfig>, \'Auth\': <class \'gluon.tools.Auth\'>, \'B\': <class \'gluon.html.B\'>, \'BEAUTIFY\': <class \'gluon.html.BEAUTIFY\'>, \'BODY\': <class \'gluon.html.BODY\'>, \'BR\': <class \'gluon.html.BR\'>, \'BUTTON\': <class \'gluon.html.BUTTON\'>, ...}, layer=\'/home/bsmith/git/webcad/web2py/applications/webcad_blog/views/generic.json\')'
p84
sS'func'
p85
S'restricted'
p86
sa(dp87
g62
S'/home/bsmith/git/webcad/web2py/applications/webcad_blog/views/generic.json'
p88
sg64
(dp89
sg70
I2
sg71
(dp90
I1
S'{{from gluon.serializers import json}}{{=XML(json(response._vars))}}'
p91
ssg83
S'()'
p92
sg85
S'<module>'
p93
sa(dp94
g62
S'/home/bsmith/git/webcad/web2py/gluon/serializers.py'
p95
sg64
(dp96
S'default'
p97
S'<function custom_json>'
p98
sS'json_parser.dumps'
p99
S'<function dumps>'
p100
sS'global json_parser'
p101
S"<module 'json' from '/usr/lib/python2.7/json/__init__.pyc'>"
p102
sS'value'
p103
S"{'freqs': [10, 10.9, 11.8, 12.7, 13.6, 14.5, 15.4, 16.3, 17.2, 18.1, 19.0, 19.9, 20.8, 21.700000000000003, 22.6, 23.5, 24.4, 25.3, 26.2, 27.1, ...], 'gains': array([  5.56650220e+01,   5.49164950e+01,   5.4...e+01,  -7.55852071e+01,\n        -7.56644504e+01]), 'phases': 'p'}"
p104
ssg70
I137
sg71
(dp105
I132
S''
sI133
S'def json(value, default=custom_json):'
p106
sI134
S'    if decimal_false_option:'
p107
sI135
S'        value = json_parser.dumps(value, default=default, use_decimal=False)'
p108
sI136
S'    else:'
p109
sI137
S'        value = json_parser.dumps(value, default=default)'
p110
sI138
S''
sI139
S'    # replace JavaScript incompatible spacing'
p111
sI140
S'    # http://timelessrepo.com/json-isnt-a-javascript-subset'
p112
sI141
S"    return value.replace(ur'\\u2028', '\\\\u2028').replace(ur'\\2029', '\\\\u2029')"
p113
ssg83
S"(value={'freqs': [10, 10.9, 11.8, 12.7, 13.6, 14.5, 15.4, 16.3, 17.2, 18.1, 19.0, 19.9, 20.8, 21.700000000000003, 22.6, 23.5, 24.4, 25.3, 26.2, 27.1, ...], 'gains': array([  5.56650220e+01,   5.49164950e+01,   5.4...e+01,  -7.55852071e+01,\n        -7.56644504e+01]), 'phases': 'p'}, default=<function custom_json>)"
p114
sg85
S'json'
p115
sa(dp116
g62
S'/usr/lib/python2.7/json/__init__.py'
p117
sg64
(dp118
S'obj'
p119
S"{'freqs': [10, 10.9, 11.8, 12.7, 13.6, 14.5, 15.4, 16.3, 17.2, 18.1, 19.0, 19.9, 20.8, 21.700000000000003, 22.6, 23.5, 24.4, 25.3, 26.2, 27.1, ...], 'gains': array([  5.56650220e+01,   5.49164950e+01,   5.4...e+01,  -7.55852071e+01,\n        -7.56644504e+01]), 'phases': 'p'}"
p120
sS'sort_keys'
p121
S'False'
p122
sS'kw'
p123
g45
sS').encode'
p124
S'undefined'
p125
ssg70
I251
sg71
(dp126
I246
S'        cls = JSONEncoder'
p127
sI247
S'    return cls('
p128
sI248
S'        skipkeys=skipkeys, ensure_ascii=ensure_ascii,'
p129
sI249
S'        check_circular=check_circular, allow_nan=allow_nan, indent=indent,'
p130
sI250
S'        separators=separators, encoding=encoding, default=default,'
p131
sI251
S'        sort_keys=sort_keys, **kw).encode(obj)'
p132
sI252
S''
sI253
S''
sI254
S'_default_decoder = JSONDecoder(encoding=None, object_hook=None,'
p133
sI255
S'                               object_pairs_hook=None)'
p134
ssg83
S"(obj={'freqs': [10, 10.9, 11.8, 12.7, 13.6, 14.5, 15.4, 16.3, 17.2, 18.1, 19.0, 19.9, 20.8, 21.700000000000003, 22.6, 23.5, 24.4, 25.3, 26.2, 27.1, ...], 'gains': array([  5.56650220e+01,   5.49164950e+01,   5.4...e+01,  -7.55852071e+01,\n        -7.56644504e+01]), 'phases': 'p'}, skipkeys=False, ensure_ascii=True, check_circular=True, allow_nan=True, cls=<class 'json.encoder.JSONEncoder'>, indent=None, separators=None, encoding='utf-8', default=<function custom_json>, sort_keys=False, **kw={})"
p135
sg85
S'dumps'
p136
sa(dp137
g62
S'/usr/lib/python2.7/json/encoder.py'
p138
sg64
(dp139
S'self'
p140
S'<json.encoder.JSONEncoder object>'
p141
sS'o'
S"{'freqs': [10, 10.9, 11.8, 12.7, 13.6, 14.5, 15.4, 16.3, 17.2, 18.1, 19.0, 19.9, 20.8, 21.700000000000003, 22.6, 23.5, 24.4, 25.3, 26.2, 27.1, ...], 'gains': array([  5.56650220e+01,   5.49164950e+01,   5.4...e+01,  -7.55852071e+01,\n        -7.56644504e+01]), 'phases': 'p'}"
p142
sS'self.iterencode'
p143
S'<bound method JSONEncoder.iterencode of <json.encoder.JSONEncoder object>>'
p144
sS'_one_shot'
p145
g125
sS'chunks'
p146
g125
sS'builtinTrue'
p147
S'True'
p148
ssg70
I207
sg71
(dp149
I202
S'            else:'
p150
sI203
S'                return encode_basestring(o)'
p151
sI204
S"        # This doesn't pass the iterator directly to ''.join() because the"
p152
sI205
S"        # exceptions aren't as detailed.  The list call should be roughly"
p153
sI206
S"        # equivalent to the PySequence_Fast that ''.join() would do."
p154
sI207
S'        chunks = self.iterencode(o, _one_shot=True)'
p155
sI208
S'        if not isinstance(chunks, (list, tuple)):'
p156
sI209
S'            chunks = list(chunks)'
p157
sI210
S"        return ''.join(chunks)"
p158
sI211
S''
ssg83
S"(self=<json.encoder.JSONEncoder object>, o={'freqs': [10, 10.9, 11.8, 12.7, 13.6, 14.5, 15.4, 16.3, 17.2, 18.1, 19.0, 19.9, 20.8, 21.700000000000003, 22.6, 23.5, 24.4, 25.3, 26.2, 27.1, ...], 'gains': array([  5.56650220e+01,   5.49164950e+01,   5.4...e+01,  -7.55852071e+01,\n        -7.56644504e+01]), 'phases': 'p'})"
p159
sg85
S'encode'
p160
sa(dp161
g62
S'/usr/lib/python2.7/json/encoder.py'
p162
sg64
(dp163
S'_iterencode'
p164
S'<_json.Encoder object>'
p165
sS'o'
S"{'freqs': [10, 10.9, 11.8, 12.7, 13.6, 14.5, 15.4, 16.3, 17.2, 18.1, 19.0, 19.9, 20.8, 21.700000000000003, 22.6, 23.5, 24.4, 25.3, 26.2, 27.1, ...], 'gains': array([  5.56650220e+01,   5.49164950e+01,   5.4...e+01,  -7.55852071e+01,\n        -7.56644504e+01]), 'phases': 'p'}"
p166
ssg70
I270
sg71
(dp167
I265
S'        else:'
p168
sI266
S'            _iterencode = _make_iterencode('
p169
sI267
S'                markers, self.default, _encoder, self.indent, floatstr,'
p170
sI268
S'                self.key_separator, self.item_separator, self.sort_keys,'
p171
sI269
S'                self.skipkeys, _one_shot)'
p172
sI270
S'        return _iterencode(o, 0)'
p173
sI271
S''
sI272
S'def _make_iterencode(markers, _default, _encoder, _indent, _floatstr,'
p174
sI273
S'        _key_separator, _item_separator, _sort_keys, _skipkeys, _one_shot,'
p175
sI274
S'        ## HACK: hand-optimized bytecode; turn globals into locals'
p176
ssg83
S"(self=<json.encoder.JSONEncoder object>, o={'freqs': [10, 10.9, 11.8, 12.7, 13.6, 14.5, 15.4, 16.3, 17.2, 18.1, 19.0, 19.9, 20.8, 21.700000000000003, 22.6, 23.5, 24.4, 25.3, 26.2, 27.1, ...], 'gains': array([  5.56650220e+01,   5.49164950e+01,   5.4...e+01,  -7.55852071e+01,\n        -7.56644504e+01]), 'phases': 'p'}, _one_shot=True)"
p177
sg85
S'iterencode'
p178
sa(dp179
g62
S'/home/bsmith/git/webcad/web2py/gluon/serializers.py'
p180
sg64
(dp181
S'builtinrepr'
p182
S'<built-in function repr>'
p183
sS'builtinTypeError'
p184
S"<type 'exceptions.TypeError'>"
p185
sS'o'
S'array([  5.56650220e+01,   5.49164950e+01,   5.4...e+01,  -7.55852071e+01,\n        -7.56644504e+01])'
p186
ssg70
I110
sg71
(dp187
I105
S"    elif hasattr(o, 'as_list') and callable(o.as_list):"
p188
sI106
S'        return o.as_list()'
p189
sI107
S"    elif hasattr(o, 'as_dict') and callable(o.as_dict):"
p190
sI108
S'        return o.as_dict()'
p191
sI109
S'    else:'
p192
sI110
S'        raise TypeError(repr(o) + " is not JSON serializable")'
p193
sI111
S''
sI112
S''
sI113
S'def xml_rec(value, key, quote=True):'
p194
sI114
S"    if hasattr(value, 'custom_xml') and callable(value.custom_xml):"
p195
ssg83
S'(o=array([  5.56650220e+01,   5.49164950e+01,   5.4...e+01,  -7.55852071e+01,\n        -7.56644504e+01]))'
p196
sg85
S'custom_json'
p197
sasS'pyver'
p198
S'Python 2.7.12: /usr/bin/python (prefix: /usr)'
p199
sS'session'
p200
g57
(S's\x1a\x00\x00\x00<div><table></table></div>'
tRp201
sS'etype'
p202
S"<type 'exceptions.TypeError'>"
p203
sS'date'
p204
S'Tue Nov 29 03:01:29 2016'
p205
sS'response'
p206
g57
(S'sr\x1f\x00\x00<div><table><tr><td style="font-weight:bold;vertical-align:top;">body</td><td style="vertical-align:top;">:</td><td><div>&lt;cStringIO.StringO object at 0x7f1ee2625d18&gt;</div></td></tr><tr><td style="font-weight:bold;vertical-align:top;">cookies</td><td style="vertical-align:top;">:</td><td><div><table><tr><td style="font-weight:bold;vertical-align:top;">session_id_webcad_blog</td><td style="vertical-align:top;">:</td><td><div>127.0.0.1-d357d671-5c6d-43b4-a7cc-c6eda3c1ff1e<table><tr><td style="font-weight:bold;vertical-align:top;">comment</td><td style="vertical-align:top;">:</td><td><div></div></td></tr><tr><td style="font-weight:bold;vertical-align:top;">domain</td><td style="vertical-align:top;">:</td><td><div></div></td></tr><tr><td style="font-weight:bold;vertical-align:top;">expires</td><td style="vertical-align:top;">:</td><td><div></div></td></tr><tr><td style="font-weight:bold;vertical-align:top;">httponly</td><td style="vertical-align:top;">:</td><td><div></div></td></tr><tr><td style="font-weight:bold;vertical-align:top;">max-age</td><td style="vertical-align:top;">:</td><td><div></div></td></tr><tr><td style="font-weight:bold;vertical-align:top;">path</td><td style="vertical-align:top;">:</td><td><div>/</div></td></tr><tr><td style="font-weight:bold;vertical-align:top;">secure</td><td style="vertical-align:top;">:</td><td><div></div></td></tr><tr><td style="font-weight:bold;vertical-align:top;">version</td><td style="vertical-align:top;">:</td><td><div></div></td></tr></table></div></td></tr></table></div></td></tr><tr><td style="font-weight:bold;vertical-align:top;">delimiters</td><td style="vertical-align:top;">:</td><td><div><table><tr><td><div>{{</div></td></tr><tr><td><div>}}</div></td></tr></table></div></td></tr><tr><td style="font-weight:bold;vertical-align:top;">files</td><td style="vertical-align:top;">:</td><td><div><table></table></div></td></tr><tr><td style="font-weight:bold;vertical-align:top;">flash</td><td style="vertical-align:top;">:</td><td><div></div></td></tr><tr><td style="font-weight:bold;vertical-align:top;">form_label_separator</td><td style="vertical-align:top;">:</td><td><div></div></td></tr><tr><td style="font-weight:bold;vertical-align:top;">formstyle</td><td style="vertical-align:top;">:</td><td><div>bootstrap3_inline</div></td></tr><tr><td style="font-weight:bold;vertical-align:top;">generic_patterns</td><td style="vertical-align:top;">:</td><td><div><table><tr><td><div>*</div></td></tr></table></div></td></tr><tr><td style="font-weight:bold;vertical-align:top;">google_analytics_id</td><td style="vertical-align:top;">:</td><td><div>None</div></td></tr><tr><td style="font-weight:bold;vertical-align:top;">headers</td><td style="vertical-align:top;">:</td><td><div><table><tr><td style="font-weight:bold;vertical-align:top;">X-Powered-By</td><td style="vertical-align:top;">:</td><td><div>web2py</div></td></tr></table></div></td></tr><tr><td style="font-weight:bold;vertical-align:top;">logo</td><td style="vertical-align:top;">:</td><td><div><a class="navbar-brand" href="http://www.web2py.com/" id="web2py-logo"><b>web<span>2</span>py</b>&trade;&nbsp;</a></div></td></tr><tr><td style="font-weight:bold;vertical-align:top;">menu</td><td style="vertical-align:top;">:</td><td><div><table><tr><td><div><table><tr><td><div>Home</div></td></tr><tr><td><div>False</div></td></tr><tr><td><div>/webcad_blog/default/index.json</div></td></tr><tr><td><div><table></table></div></td></tr></table></div></td></tr><tr><td><div><table><tr><td><div>Blog</div></td></tr><tr><td><div>False</div></td></tr><tr><td><div>/webcad_blog/default/blog_home.json</div></td></tr></table></div></td></tr><tr><td><div><table><tr><td><div>Tools</div></td></tr><tr><td><div>False</div></td></tr><tr><td><div>#</div></td></tr><tr><td><div><table><tr><td><div><table><tr><td><div>PLL Designer</div></td></tr><tr><td><div>False</div></td></tr><tr><td><div>/webcad_blog/default/pll_designer.json</div></td></tr></table></div></td></tr><tr><td><div><table><tr><td><div>Test Page</div></td></tr><tr><td><div>False</div></td></tr><tr><td><div>/webcad_blog/default/test_page.json</div></td></tr></table></div></td></tr></table></div></td></tr></table></div></td></tr></table></div></td></tr><tr><td style="font-weight:bold;vertical-align:top;">meta</td><td style="vertical-align:top;">:</td><td><div><table><tr><td style="font-weight:bold;vertical-align:top;">author</td><td style="vertical-align:top;">:</td><td><div>Your Name &lt;you@example.com&gt;</div></td></tr><tr><td style="font-weight:bold;vertical-align:top;">description</td><td style="vertical-align:top;">:</td><td><div>a cool new app</div></td></tr><tr><td style="font-weight:bold;vertical-align:top;">generator</td><td style="vertical-align:top;">:</td><td><div>Web2py Web Framework</div></td></tr><tr><td style="font-weight:bold;vertical-align:top;">keywords</td><td style="vertical-align:top;">:</td><td><div><table><tr><td><div>web2py</div></td></tr><tr><td><div>python</div></td></tr><tr><td><div>framework</div></td></tr></table></div></td></tr></table></div></td></tr><tr><td style="font-weight:bold;vertical-align:top;">models_to_run</td><td style="vertical-align:top;">:</td><td><div><table><tr><td><div>^\\w+\\.py$</div></td></tr><tr><td><div>^pll_calcs/\\w+\\.py$</div></td></tr><tr><td><div>^pll_calcs/callSimulatePllOpenLoop/\\w+\\.py$</div></td></tr></table></div></td></tr><tr><td style="font-weight:bold;vertical-align:top;">postprocessing</td><td style="vertical-align:top;">:</td><td><div><table></table></div></td></tr><tr><td style="font-weight:bold;vertical-align:top;">session_client</td><td style="vertical-align:top;">:</td><td><div>127.0.0.1</div></td></tr><tr><td style="font-weight:bold;vertical-align:top;">session_cookie_compression_level</td><td style="vertical-align:top;">:</td><td><div>None</div></td></tr><tr><td style="font-weight:bold;vertical-align:top;">session_cookie_expires</td><td style="vertical-align:top;">:</td><td><div>None</div></td></tr><tr><td style="font-weight:bold;vertical-align:top;">session_data_name</td><td style="vertical-align:top;">:</td><td><div>session_data_webcad_blog</div></td></tr><tr><td style="font-weight:bold;vertical-align:top;">session_file</td><td style="vertical-align:top;">:</td><td><div>None</div></td></tr><tr><td style="font-weight:bold;vertical-align:top;">session_filename</td><td style="vertical-align:top;">:</td><td><div>/home/bsmith/git/webcad/web2py/applications/webcad_blog/sessions/127.0.0.1-d357d671-5c6d-43b4-a7cc-c6eda3c1ff1e</div></td></tr><tr><td style="font-weight:bold;vertical-align:top;">session_hash</td><td style="vertical-align:top;">:</td><td><div>c0762cbf4baf7f9af97c051e7fcb8083</div></td></tr><tr><td style="font-weight:bold;vertical-align:top;">session_id</td><td style="vertical-align:top;">:</td><td><div>127.0.0.1-d357d671-5c6d-43b4-a7cc-c6eda3c1ff1e</div></td></tr><tr><td style="font-weight:bold;vertical-align:top;">session_id_name</td><td style="vertical-align:top;">:</td><td><div>session_id_webcad_blog</div></td></tr><tr><td style="font-weight:bold;vertical-align:top;">session_masterapp</td><td style="vertical-align:top;">:</td><td><div>webcad_blog</div></td></tr><tr><td style="font-weight:bold;vertical-align:top;">session_new</td><td style="vertical-align:top;">:</td><td><div>True</div></td></tr><tr><td style="font-weight:bold;vertical-align:top;">session_storage_type</td><td style="vertical-align:top;">:</td><td><div>file</div></td></tr><tr><td style="font-weight:bold;vertical-align:top;">status</td><td style="vertical-align:top;">:</td><td><div>200</div></td></tr><tr><td style="font-weight:bold;vertical-align:top;">subtitle</td><td style="vertical-align:top;">:</td><td><div></div></td></tr><tr><td style="font-weight:bold;vertical-align:top;">title</td><td style="vertical-align:top;">:</td><td><div>Webcad Blog</div></td></tr><tr><td style="font-weight:bold;vertical-align:top;">view</td><td style="vertical-align:top;">:</td><td><div>pll_calcs/callSimulatePllOpenLoop.json</div></td></tr></table></div>'
tRp207
sS'locals'
p208
(dp209
S'o'
S'array([  5.56650220e+01,   5.49164950e+01,   5.4...e+01,  -7.55852071e+01,\n        -7.56644504e+01])'
p210
sssS'traceback'
p211
S'Traceback (most recent call last):\n  File "/home/bsmith/git/webcad/web2py/gluon/restricted.py", line 227, in restricted\n    exec ccode in environment\n  File "/home/bsmith/git/webcad/web2py/applications/webcad_blog/views/generic.json", line 2, in <module>\n  File "/home/bsmith/git/webcad/web2py/gluon/serializers.py", line 137, in json\n    value = json_parser.dumps(value, default=default)\n  File "/usr/lib/python2.7/json/__init__.py", line 251, in dumps\n    sort_keys=sort_keys, **kw).encode(obj)\n  File "/usr/lib/python2.7/json/encoder.py", line 207, in encode\n    chunks = self.iterencode(o, _one_shot=True)\n  File "/usr/lib/python2.7/json/encoder.py", line 270, in iterencode\n    return _iterencode(o, 0)\n  File "/home/bsmith/git/webcad/web2py/gluon/serializers.py", line 110, in custom_json\n    raise TypeError(repr(o) + " is not JSON serializable")\nTypeError: array([  5.56650220e+01,   5.49164950e+01,   5.42273881e+01,\n         5.35889573e+01,   5.29942572e+01,   5.24376794e+01,\n         5.19146292e+01,   5.14212961e+01,   5.09544840e+01,\n         5.05114864e+01,   5.00899912e+01,   4.96880072e+01,\n         4.93038078e+01,   4.89358858e+01,   4.85829180e+01,\n         4.82437361e+01,   4.79173036e+01,   4.76026968e+01,\n         4.72990887e+01,   4.70057362e+01,   4.67219693e+01,\n         4.64471811e+01,   4.61808210e+01,   4.59223874e+01,\n         4.56714221e+01,   4.54275056e+01,   4.51902528e+01,\n         4.49593094e+01,   4.47343484e+01,   4.45150677e+01,\n         4.43011877e+01,   4.40924486e+01,   4.38886091e+01,\n         4.36894447e+01,   4.34947455e+01,   4.33043159e+01,\n         4.31179726e+01,   4.29355440e+01,   4.27568689e+01,\n         4.25817962e+01,   4.24101833e+01,   4.22418963e+01,\n         4.20768086e+01,   4.19148010e+01,   4.17557607e+01,\n         4.15995808e+01,   4.14461605e+01,   4.12954038e+01,\n         4.11472199e+01,   4.10015225e+01,   4.08582295e+01,\n         4.07172628e+01,   4.05785483e+01,   4.04420150e+01,\n         4.03075954e+01,   4.01752252e+01,   4.00448428e+01,\n         3.99163893e+01,   3.97898086e+01,   3.96650469e+01,\n         3.95420527e+01,   3.94207765e+01,   3.93011711e+01,\n         3.91831911e+01,   3.90667929e+01,   3.89519347e+01,\n         3.88385763e+01,   3.87266790e+01,   3.86162057e+01,\n         3.85071206e+01,   3.83993893e+01,   3.82929786e+01,\n         3.81878565e+01,   3.80839922e+01,   3.79813560e+01,\n         3.78799192e+01,   3.77796542e+01,   3.76805340e+01,\n         3.75825330e+01,   3.74856262e+01,   3.73897894e+01,\n         3.72949992e+01,   3.72012331e+01,   3.71084692e+01,\n         3.70166862e+01,   3.69258638e+01,   3.68359820e+01,\n         3.67470215e+01,   3.66589636e+01,   3.65717903e+01,\n         3.64854840e+01,   3.64000276e+01,   3.63154045e+01,\n         3.62315986e+01,   3.61485944e+01,   3.60663767e+01,\n         3.59849307e+01,   3.59042420e+01,   3.58242968e+01,\n         3.57450815e+01,   3.49183492e+01,   3.42295609e+01,\n         3.35914740e+01,   3.29971431e+01,   3.24409595e+01,\n         3.19183288e+01,   3.14254403e+01,   3.09590979e+01,\n         3.05165952e+01,   3.00956199e+01,   2.96941810e+01,\n         2.93105518e+01,   2.89432250e+01,   2.85908774e+01,\n         2.82523406e+01,   2.79265783e+01,   2.76126666e+01,\n         2.73097786e+01,   2.70171711e+01,   2.67341739e+01,\n         2.64601805e+01,   2.61946398e+01,   2.59370505e+01,\n         2.56869542e+01,   2.54439315e+01,   2.52075972e+01,\n         2.49775968e+01,   2.47536035e+01,   2.45353152e+01,\n         2.43224520e+01,   2.41147543e+01,   2.39119807e+01,\n         2.37139065e+01,   2.35203221e+01,   2.33310315e+01,\n         2.31458516e+01,   2.29646106e+01,   2.27871475e+01,\n         2.26133108e+01,   2.24429582e+01,   2.22759554e+01,\n         2.21121762e+01,   2.19515010e+01,   2.17938170e+01,\n         2.16390174e+01,   2.14870012e+01,   2.13376725e+01,\n         2.11909403e+01,   2.10467183e+01,   2.09049243e+01,\n         2.07654804e+01,   2.06283121e+01,   2.04933485e+01,\n         2.03605222e+01,   2.02297685e+01,   2.01010260e+01,\n         1.99742357e+01,   1.98493414e+01,   1.97262893e+01,\n         1.96050277e+01,   1.94855073e+01,   1.93676805e+01,\n         1.92515021e+01,   1.91369284e+01,   1.90239175e+01,\n         1.89124290e+01,   1.88024244e+01,   1.86938664e+01,\n         1.85867191e+01,   1.84809480e+01,   1.83765200e+01,\n         1.82734029e+01,   1.81715659e+01,   1.80709791e+01,\n         1.79716139e+01,   1.78734425e+01,   1.77764381e+01,\n         1.76805746e+01,   1.75858272e+01,   1.74921716e+01,\n         1.73995844e+01,   1.73080428e+01,   1.72175250e+01,\n         1.71280097e+01,   1.70394762e+01,   1.69519048e+01,\n         1.68652759e+01,   1.67795708e+01,   1.66947714e+01,\n         1.66108600e+01,   1.65278195e+01,   1.64456332e+01,\n         1.63642849e+01,   1.62837590e+01,   1.62040402e+01,\n         1.61251137e+01,   1.60469650e+01,   1.59695802e+01,\n         1.58929455e+01,   1.50959186e+01,   1.44361663e+01,\n         1.38289601e+01,   1.32672652e+01,   1.27453817e+01,\n         1.22586230e+01,   1.18030854e+01,   1.13754804e+01,\n         1.09730093e+01,   1.05932691e+01,   1.02341793e+01,\n         9.89392588e+00,   9.57091640e+00,   9.26374491e+00,\n         8.97116327e+00,   8.69205802e+00,   8.42543142e+00,\n         8.17038579e+00,   7.92611048e+00,   7.69187092e+00,\n         7.46699943e+00,   7.25088736e+00,   7.04297842e+00,\n         6.84276295e+00,   6.64977292e+00,   6.46357764e+00,\n         6.28378004e+00,   6.11001333e+00,   5.94193814e+00,\n         5.77923996e+00,   5.62162690e+00,   5.46882765e+00,\n         5.32058970e+00,   5.17667775e+00,   5.03687227e+00,\n         4.90096818e+00,   4.76877373e+00,   4.64010942e+00,\n         4.51480704e+00,   4.39270881e+00,   4.27366662e+00,\n         4.15754129e+00,   4.04420191e+00,   3.93352526e+00,\n         3.82539525e+00,   3.71970243e+00,   3.61634354e+00,\n         3.51522105e+00,   3.41624283e+00,   3.31932171e+00,\n         3.22437525e+00,   3.13132535e+00,   3.04009802e+00,\n         2.95062309e+00,   2.86283399e+00,   2.77666751e+00,\n         2.69206362e+00,   2.60896523e+00,   2.52731806e+00,\n         2.44707045e+00,   2.36817320e+00,   2.29057945e+00,\n         2.21424452e+00,   2.13912579e+00,   2.06518261e+00,\n         1.99237615e+00,   1.92066932e+00,   1.85002667e+00,\n         1.78041433e+00,   1.71179986e+00,   1.64415223e+00,\n         1.57744174e+00,   1.51163991e+00,   1.44671946e+00,\n         1.38265425e+00,   1.31941916e+00,   1.25699014e+00,\n         1.19534405e+00,   1.13445870e+00,   1.07431275e+00,\n         1.01488570e+00,   9.56157824e-01,   8.98110161e-01,\n         8.40724456e-01,   7.83983136e-01,   7.27869280e-01,\n         6.72366584e-01,   6.17459338e-01,   5.63132395e-01,\n         5.09371150e-01,   4.56161511e-01,   4.03489879e-01,\n         3.51343130e-01,   2.99708587e-01,   2.48574007e-01,\n         1.97927559e-01,   1.47757809e-01,   9.80537018e-02,\n         4.88045464e-02,  -4.65644531e-01,  -8.96085954e-01,\n        -1.29762161e+00,  -1.67500977e+00,  -2.03191599e+00,\n        -2.37121201e+00,  -2.69518123e+00,  -3.00566342e+00,\n        -3.30415864e+00,  -3.59190343e+00,  -3.86992742e+00,\n        -4.13909607e+00,  -4.40014339e+00,  -4.65369720e+00,\n        -4.90029881e+00,  -5.14041864e+00,  -5.37446848e+00,\n        -5.60281144e+00,  -5.82576981e+00,  -6.04363157e+00,\n        -6.25665562e+00,  -6.46507603e+00,  -6.66910563e+00,\n        -6.86893891e+00,  -7.06475445e+00,  -7.25671696e+00,\n        -7.44497898e+00,  -7.62968230e+00,  -7.81095920e+00,\n        -7.98893346e+00,  -8.16372126e+00,  -8.33543193e+00,\n        -8.50416861e+00,  -8.67002879e+00,  -8.83310485e+00,\n        -8.99348445e+00,  -9.15125092e+00,  -9.30648360e+00,\n        -9.45925815e+00,  -9.60964677e+00,  -9.75771847e+00,\n        -9.90353930e+00,  -1.00471725e+01,  -1.01886786e+01,\n        -1.03281159e+01,  -1.04655401e+01,  -1.06010050e+01,\n        -1.07345620e+01,  -1.08662608e+01,  -1.09961491e+01,\n        -1.11242730e+01,  -1.12506768e+01,  -1.13754033e+01,\n        -1.14984935e+01,  -1.16199874e+01,  -1.17399234e+01,\n        -1.18583385e+01,  -1.19752686e+01,  -1.20907483e+01,\n        -1.22048111e+01,  -1.23174895e+01,  -1.24288147e+01,\n        -1.25388172e+01,  -1.26475263e+01,  -1.27549704e+01,\n        -1.28611772e+01,  -1.29661733e+01,  -1.30699846e+01,\n        -1.31726363e+01,  -1.32741528e+01,  -1.33745575e+01,\n        -1.34738736e+01,  -1.35721232e+01,  -1.36693279e+01,\n        -1.37655087e+01,  -1.38606861e+01,  -1.39548798e+01,\n        -1.40481091e+01,  -1.41403927e+01,  -1.42317488e+01,\n        -1.43221951e+01,  -1.44117488e+01,  -1.45004267e+01,\n        -1.45882450e+01,  -1.46752197e+01,  -1.47613661e+01,\n        -1.48466993e+01,  -1.49312340e+01,  -1.50149844e+01,\n        -1.50979644e+01,  -1.51801877e+01,  -1.52616673e+01,\n        -1.53424162e+01,  -1.54224469e+01,  -1.55017717e+01,\n        -1.55804025e+01,  -1.56583510e+01,  -1.57356285e+01,\n        -1.58122461e+01,  -1.66144136e+01,  -1.72859372e+01,\n        -1.79102829e+01,  -1.84935315e+01,  -1.90406772e+01,\n        -1.95558683e+01,  -2.00425861e+01,  -2.05037783e+01,\n        -2.09419621e+01,  -2.13593034e+01,  -2.17576784e+01,\n        -2.21387229e+01,  -2.25038713e+01,  -2.28543882e+01,\n        -2.31913939e+01,  -2.35158855e+01,  -2.38287544e+01,\n        -2.41308002e+01,  -2.44227434e+01,  -2.47052349e+01,\n        -2.49788652e+01,  -2.52441712e+01,  -2.55016426e+01,\n        -2.57517273e+01,  -2.59948359e+01,  -2.62313459e+01,\n        -2.64616051e+01,  -2.66859344e+01,  -2.69046308e+01,\n        -2.71179696e+01,  -2.73262063e+01,  -2.75295788e+01,\n        -2.77283087e+01,  -2.79226027e+01,  -2.81126541e+01,\n        -2.82986440e+01,  -2.84807420e+01,  -2.86591073e+01,\n        -2.88338896e+01,  -2.90052299e+01,  -2.91732608e+01,\n        -2.93381076e+01,  -2.94998886e+01,  -2.96587155e+01,\n        -2.98146942e+01,  -2.99679249e+01,  -3.01185025e+01,\n        -3.02665174e+01,  -3.04120551e+01,  -3.05551972e+01,\n        -3.06960211e+01,  -3.08346007e+01,  -3.09710063e+01,\n        -3.11053049e+01,  -3.12375607e+01,  -3.13678347e+01,\n        -3.14961855e+01,  -3.16226689e+01,  -3.17473385e+01,\n        -3.18702455e+01,  -3.19914390e+01,  -3.21109661e+01,\n        -3.22288719e+01,  -3.23451999e+01,  -3.24599916e+01,\n        -3.25732871e+01,  -3.26851249e+01,  -3.27955419e+01,\n        -3.29045738e+01,  -3.30122549e+01,  -3.31186182e+01,\n        -3.32236956e+01,  -3.33275178e+01,  -3.34301144e+01,\n        -3.35315139e+01,  -3.36317440e+01,  -3.37308314e+01,\n        -3.38288017e+01,  -3.39256798e+01,  -3.40214899e+01,\n        -3.41162552e+01,  -3.42099983e+01,  -3.43027409e+01,\n        -3.43945042e+01,  -3.44853086e+01,  -3.45751739e+01,\n        -3.46641194e+01,  -3.47521638e+01,  -3.48393249e+01,\n        -3.49256205e+01,  -3.50110675e+01,  -3.50956825e+01,\n        -3.51794814e+01,  -3.52624799e+01,  -3.53446931e+01,\n        -3.54261357e+01,  -3.55068221e+01,  -3.55867661e+01,\n        -3.56659812e+01,  -3.64927727e+01,  -3.71816973e+01,\n        -3.78199839e+01,  -3.84145684e+01,  -3.89710525e+01,\n        -3.94940257e+01,  -3.99872953e+01,  -4.04540545e+01,\n        -4.08970077e+01,  -4.13184658e+01,  -4.17204185e+01,\n        -4.21045915e+01,  -4.24724912e+01,  -4.28254404e+01,\n        -4.31646068e+01,  -4.34910263e+01,  -4.38056226e+01,\n        -4.41092221e+01,  -4.44025678e+01,  -4.46863296e+01,\n        -4.49611141e+01,  -4.52274718e+01,  -4.54859043e+01,\n        -4.57368695e+01,  -4.59807868e+01,  -4.62180413e+01,\n        -4.64489874e+01,  -4.66739518e+01,  -4.68932366e+01,\n        -4.71071215e+01,  -4.73158661e+01,  -4.75197116e+01,\n        -4.77188827e+01,  -4.79135891e+01,  -4.81040264e+01,\n        -4.82903780e+01,  -4.84728153e+01,  -4.86514996e+01,\n        -4.88265820e+01,  -4.89982049e+01,  -4.91665024e+01,\n        -4.93316009e+01,  -4.94936198e+01,  -4.96526718e+01,\n        -4.98088637e+01,  -4.99622965e+01,  -5.01130659e+01,\n        -5.02612630e+01,  -5.04069739e+01,  -5.05502807e+01,\n        -5.06912615e+01,  -5.08299905e+01,  -5.09665386e+01,\n        -5.11009733e+01,  -5.12333590e+01,  -5.13637572e+01,\n        -5.14922267e+01,  -5.16188237e+01,  -5.17436021e+01,\n        -5.18666134e+01,  -5.19879068e+01,  -5.21075298e+01,\n        -5.22255277e+01,  -5.23419440e+01,  -5.24568207e+01,\n        -5.25701978e+01,  -5.26821141e+01,  -5.27926067e+01,\n        -5.29017114e+01,  -5.30094626e+01,  -5.31158935e+01,\n        -5.32210360e+01,  -5.33249210e+01,  -5.34275782e+01,\n        -5.35290363e+01,  -5.36293229e+01,  -5.37284648e+01,\n        -5.38264879e+01,  -5.39234171e+01,  -5.40192766e+01,\n        -5.41140897e+01,  -5.42078790e+01,  -5.43006664e+01,\n        -5.43924730e+01,  -5.44833194e+01,  -5.45732255e+01,\n        -5.46622105e+01,  -5.47502932e+01,  -5.48374915e+01,\n        -5.49238232e+01,  -5.50093052e+01,  -5.50939542e+01,\n        -5.51777861e+01,  -5.52608167e+01,  -5.53430611e+01,\n        -5.54245340e+01,  -5.55052499e+01,  -5.55852225e+01,\n        -5.56644656e+01,  -5.64915198e+01,  -5.71806281e+01,\n        -5.78190609e+01,  -5.84137635e+01,  -5.89703444e+01,\n        -5.94933979e+01,  -5.99867349e+01,  -6.04535512e+01,\n        -6.08965533e+01,  -6.13180534e+01,  -6.17200425e+01,\n        -6.21042474e+01,  -6.24721751e+01,  -6.28251489e+01,\n        -6.31643371e+01,  -6.34907762e+01,  -6.38053900e+01,\n        -6.41090052e+01,  -6.44023650e+01,  -6.46861397e+01,\n        -6.49609358e+01,  -6.52273042e+01,  -6.54857463e+01,\n        -6.57367203e+01,  -6.59806458e+01,  -6.62179079e+01,\n        -6.64488609e+01,  -6.66738317e+01,  -6.68931224e+01,\n        -6.71070128e+01,  -6.73157624e+01,  -6.75196127e+01,\n        -6.77187883e+01,  -6.79134988e+01,  -6.81039400e+01,\n        -6.82902951e+01,  -6.84727359e+01,  -6.86514233e+01,\n        -6.88265088e+01,  -6.89981345e+01,  -6.91664347e+01,\n        -6.93315358e+01,  -6.94935570e+01,  -6.96526113e+01,\n        -6.98088053e+01,  -6.99622401e+01,  -7.01130115e+01,\n        -7.02612104e+01,  -7.04069230e+01,  -7.05502315e+01,\n        -7.06912138e+01,  -7.08299444e+01,  -7.09664939e+01,\n        -7.11009299e+01,  -7.12333169e+01,  -7.13637164e+01,\n        -7.14921871e+01,  -7.16187853e+01,  -7.17435647e+01,\n        -7.18665770e+01,  -7.19878715e+01,  -7.21074954e+01,\n        -7.22254942e+01,  -7.23419114e+01,  -7.24567889e+01,\n        -7.25701669e+01,  -7.26820840e+01,  -7.27925773e+01,\n        -7.29016828e+01,  -7.30094347e+01,  -7.31158662e+01,\n        -7.32210094e+01,  -7.33248950e+01,  -7.34275528e+01,\n        -7.35290115e+01,  -7.36292987e+01,  -7.37284412e+01,\n        -7.38264648e+01,  -7.39233945e+01,  -7.40192545e+01,\n        -7.41140680e+01,  -7.42078578e+01,  -7.43006456e+01,\n        -7.43924527e+01,  -7.44832995e+01,  -7.45732060e+01,\n        -7.46621914e+01,  -7.47502745e+01,  -7.48374732e+01,\n        -7.49238052e+01,  -7.50092876e+01,  -7.50939369e+01,\n        -7.51777692e+01,  -7.52608001e+01,  -7.53430448e+01,\n        -7.54245180e+01,  -7.55052341e+01,  -7.55852071e+01,\n        -7.56644504e+01]) is not JSON serializable\n'
p212
s.