(dp1
S'output'
p2
S"<type 'exceptions.NameError'> global name 't1' is not defined"
p3
sS'layer'
p4
S'/home/bsmith/git/webcad/web2py/applications/webcad_blog/controllers/pll_calcs.py'
p5
sS'code'
p6
S'#\n#-*- coding: utf-8 -*-\n# \n\n# -------------------------------------------------------------------------\n# \n# -------------------------------------------------------------------------\n\nfrom gluon.tools import Service\nservice = Service(globals())\n\nimport numpy as np\n\n\ndef call():\n    """\n    exposes services. for example:\n    http://..../[app]/pll_calcs/call/jsonrpc\n    decorate with @services.jsonrpc the functions to expose\n    supports xml, json, xmlrpc, jsonrpc, amfrpc, rss, csv\n    """\n    # session.forget()\n    return service()\n\n@service.json\ndef solveForComponents( ):\n    """\n    :Parameters:\n    loop_type (str) - \n        * passive2 - 2nd order passive\n        * passive3 - 3rd order passive\n        * passive4 - 4th order passive\n        * active2 -  2nd order active\n        * active3 -  3rd order active\n        * active4 -  4th order active\n    fc (float) - 0dB crossover frequency in Hz\n    pm (float) - phase margin in degrees\n    kphi (float) - charge pump gain in Amps per radian\n    kvco (float) - vco tuning sensitivity in Hz/V\n    N (int) - loop multiplication ratio\n    gamma (float) - optimization factor (1.024 default)\n    """\n    fc =        float(request.vars.fc)\n    pm =        float(request.vars.pm)\n    kphi =      float(request.vars.kphi)\n    kvco =      float(request.vars.kvco)\n    N =         float(request.vars.N)\n    gamma =     float(request.vars.gamma)\n    loop_type = request.vars.loop_type\n    \n    if loop_type == \'passive2\':\n        pll = PllSecondOrderPassive( fc,\n                                     pm,\n                                     kphi,\n                                     kvco,\n                                     N,\n                                     gamma=gamma )\n        d = pll.calc_components()\n    elif loop_type == \'passive3\':\n        pll = PllThirdOrderPassive( fc,\n                                    pm,\n                                    kphi,\n                                    kvco,\n                                    N,\n                                    gamma=gamma )\n        d = pll.calc_components()\n    return d\n\nclass PllSecondOrderPassive( object ):\n    def __init__(self,\n                 fc,\n                 pm,\n                 kphi,\n                 kvco,\n                 N,\n                 gamma=1.024):\n        """\n        :Parameters:\n        fc (float) - cutoff frequency in Hz\n        pm (float) - phase margin in degrees\n        kphi (float) - charge pump gain in Amps per radian\n        kvco (float) - vco tuning sensitivity in Hz/V\n        N (int) - loop multiplication ratio\n        gamma (float) - optimization factor (default=1.024)\n        """\n        self.fc = fc\n        self.pm = pm\n        self.kphi = kphi\n        self.kvco = kvco\n        self.N = N\n        self.gamma = gamma\n\n    def calc_components(self):\n        """ return a dict with the component values """\n        d = {}\n\n        d[\'t1\'] = self.calc_t1(self.fc, \n                               self.pm, \n                               self.gamma)\n\n        d[\'t2\'] = self.calc_t2(self.fc, \n                               d[\'t1\'], \n                               self.gamma)\n\n        d[\'a0\'] = self.calc_a0(self.kphi, \n                               self.kvco, \n                               self.N, \n                               self.fc, \n                               d[\'t1\'],\n                               d[\'t2\'])\n\n        d[\'c1\'] = self.calc_c1(d[\'a0\'],\n                               d[\'t1\'],\n                               d[\'t2\'])\n\n        d[\'c2\'] = self.calc_c2(d[\'a0\'], \n                               d[\'c1\'])\n\n        d[\'r2\'] = self.calc_r2(d[\'c2\'], \n                               d[\'t2\'])\n\n        d[\'a1\'] = self.calc_a1(d[\'c1\'], \n                               d[\'c2\'],\n                               d[\'r2\'])\n        \n        return d\n\n    def calc_t1(self, fc, pm, gamma=1.024):\n        """\n        :Parameters:\n        fc (float) - cutoff frequency in Hz\n        pm (float) - phase margin in degrees\n        gamma (float) - optimization factor (default=1.024)\n        """\n        omega_c = 2*np.pi*fc\n        phi = np.pi*pm/180\n        t1 = (np.sqrt(((1+gamma)**2)*(np.tan(phi))**2 + 4*gamma) -\\\n                (1+gamma)*np.tan(phi)) /\\\n                (2*omega_c)\n        return t1\n       \n    def calc_t2(self, fc, t1, gamma=1.024):\n        """\n        :Parameters:\n        fc (float) - cutoff frequency in Hz\n        t1 (float) - time constant t1 in seconds\n        gamma (float) - optimization factor (default=1.024)\n        """\n        omega_c = 2*np.pi*fc\n        return gamma/((omega_c**2)*t1)\n    \n    def calc_a0(self, kphi, kvco, N, fc, t1, t2):\n        """\n        :Parameters:\n        kphi (float) - charge pump gain in Amps per radian\n        kvco (float) - vco tuning sensitivity in Hz/V\n        N (int) - loop multiplication ratio\n        fc (float) - 0dB crossover frequency in Hz\n        t1 (float) - time constant t1 in seconds\n        t2 (float) - time constant t2 in seconds\n        """\n        omega_c = 2*np.pi*fc\n        x = (kphi*kvco)/(N*omega_c**2)\n        y_num = np.sqrt(1+(omega_c**2)*(t2**2))\n        y_den = np.sqrt(1+(omega_c**2)*(t1**2))\n        a0 = x*y_num/y_den\n        return a0\n    \n    def calc_c1(self, a0, t1, t2):\n        """\n        :Parameters:\n        a0 (float) - loop filter coefficient\n        t1 (float) - time constant t1 in seconds\n        (t2 (float) - time constant t2 in seconds\n        """\n        return a0*t1/t2\n    \n    def calc_c2(self, a0, c1):\n        """\n        :Parameters:\n        a0 (float) - loop filter coefficient\n        c1 (float) - capacitor in Farads\n        """\n        return a0-c1\n    \n    def calc_r2(self, c2, t2):\n        """\n        :Parameters:\n        c2 (float) - capacitor in Farads\n        t2 (float) - time constant t2 in seconds\n        """\n        return t2/c2\n\n    def calc_a1(self, c1, c2, r2):\n        """\n        :Parameters:\n        c1 (float) - capacitor in Farads\n        c2 (float) - capacitor in Farads\n        r2 (float) - resistor in Ohms\n        """\n        return c1*c2*r2\n\nclass PllThirdOrderPassive( PllSecondOrderPassive ):\n    def __init__(self,\n                 fc,\n                 pm,\n                 kphi,\n                 kvco,\n                 N,\n                 gamma=1.024,\n                 t31=0.6):\n        """\n        :Parameters:\n        fc (float) - cutoff frequency in Hz\n        pm (float) - phase margin in degrees\n        kphi (float) - charge pump gain in Amps per radian\n        kvco (float) - vco tuning sensitivity in Hz/V\n        N (int) - loop multiplication ratio\n        gamma (float) - optimization factor (default=1.024)\n        """\n        self.fc = fc\n        self.pm = pm\n        self.kphi = kphi\n        self.kvco = kvco\n        self.N = N\n        self.gamma = gamma\n        self.t31 = t31\n\n    def calc_components(self):\n        """ return a dict with the component values """\n        d = {}\n\n        d[\'t1\'] = self.calc_t1(self.fc, \n                               self.pm, \n                               self.gamma)\n\n        t3 = d[\'t1\']*self.t31 \n  \n        omega_c = 2*np.pi*self.fc\n        d[\'t2\'] = self.gamma/( (omega_c**2)*(t1 + t3 ) )\n\n        d[\'a0\'] = self.calc_a0(self.kphi, \n                               self.kvco, \n                               self.N, \n                               self.fc, \n                               d[\'t1\'],\n                               d[\'t2\'])\n\n        # d[\'c1\'] = self.calc_c1(d[\'a0\'],\n        #                        d[\'t1\'],\n        #                        d[\'t2\'])\n\n        # d[\'c2\'] = self.calc_c2(d[\'a0\'], \n        #                        d[\'c1\'])\n\n        # d[\'r2\'] = self.calc_r2(d[\'c2\'], \n        #                        d[\'t2\'])\n\n        # d[\'a1\'] = self.calc_a1(d[\'c1\'], \n        #                        d[\'c2\'],\n        #                        d[\'r2\'])\n        # \n        return d\n\n    def calc_a0( self, \n                 kphi, \n                 kvco, \n                 N, \n                 fc, \n                 t1, \n                 t2, \n                 t3 ):\n        omega_c = 2*np.pi*fc\n        k1 = kphi*kvco/((omega_c**2)*(N))\n        k2 = np.sqrt( (1+(omeaga_c*t2)**2)/((1+(omega_c*t1)**2)*(1+(omega_c*t3)**2) ) )\n        return k1*k2\n\n\n    def calc_t1(self, \n                fc, \n                pm, \n                gamma,\n                t31=0.6,\n                num_iters=100):\n        """ numerically solve for t1 using the bisection method\n            see: https://en.wikibooks.org/wiki/Numerical_Methods/Equation_Solving\n        :Parameters:\n        fc (float) - cutoff frequency in Hz\n        pm (float) - phase margin in degrees\n        gamma (float) - optimization factor (1.136)\n        num_iters (int) - number of times to loop\n        """\n        a = 1e-15   # initial guess for a\n        b = 1.0       # initial guess for b\n        fa = self.func_t1(a,fc,pm,t31=t31,gamma=gamma)\n        fb = self.func_t1(b,fc,pm,t31=t31,gamma=gamma)\n        for i in range(num_iters):\n            guess = (a+b)/2\n            if (self.func_t1(guess,fc,pm,t31=t31,gamma=gamma) < 0):\n                b = guess\n            else:\n                a = guess\n        return guess\n\n    def func_t1(self,\n                x, \n                fc, \n                pm,\n                t31=0.6, \n                gamma=1.136):\n        """ simulate t1. This function is used to \n        numerically solve for T1. \n        Equation 22.31 in Dean Banerjee\'s Book\n        :Parameters:\n        x (float) - guess at t1\n        fc (float) - cutoff frequency in Hz\n        pm (float) - phase margin in degrees\n        t31 (float) - ratio of t3 to t1\n        gamma (float) - optimization factor (1.136)\n        :Returns:\n        updated value for t1 based on guess (float)\n        """\n        omega_c = 2*np.pi*fc\n        phi = pm*np.pi/180\n        val = np.arctan( gamma/(omega_c*x*(1+t31)) ) - \\\n                np.arctan( omega_c*x ) - \\\n                np.arctan( omega_c*x*t31 ) - phi\n        return val\n\n@service.json\ndef callSimulatePllOpenLoop():\n    """\n    """\n    fstart =        float(request.vars.fstart)\n    fstop =         float(request.vars.fstop)\n    ptsPerDec =     int(request.vars.ptsPerDec)\n    kphi =          float(request.vars.kphi)\n    kvco =          float(request.vars.kvco)\n    N =             float(request.vars.N)\n    flt_type =      request.vars.flt_type\n    c1 =            float(request.vars.c1)\n    c2 =            float(request.vars.c2)\n    c3 =            float(request.vars.c3)\n    c4 =            float(request.vars.c4)\n    r2 =            float(request.vars.r2)\n    r3 =            float(request.vars.r3)\n    r4 =            float(request.vars.r4)\n    flt =   {\n            \'c1\':c1,\n            \'c2\':c2,\n            \'c3\':c3,\n            \'c4\':c4,\n            \'r2\':r2,\n            \'r3\':r3,\n            \'r4\':r4,\n            \'flt_type\':flt_type\n            }\n    # d = flt \n    f, g, p = simulatePllOpenLoop( fstart,\n                                   fstop,\n                                   ptsPerDec,\n                                   kphi,\n                                   kvco,\n                                   N,\n                                   filt=flt )\n    \n    d = { \'freqs\':f,\n          \'gains\':g,\n          \'phases\':p }\n    return d \n\ndef testSimulateOpenLoop():\n    fstart = 10\n    fstop = 100e6\n    ptsPerDec = 100\n    kphi = 1e-3\n    kvco = 60e6\n    N = 39200\n    flt = {\n            \'c1\':145e-12,\n            \'c2\':0.906e-9,\n            \'c3\':0,\n            \'c4\':0,\n            \'r2\':47775,\n            \'r3\':0,\n            \'r4\':0,\n            \'flt_type\':"passive" \n           }\n    f,g,p = simulatePllOpenLoop( fstart, \n                         fstop, \n                         ptsPerDec,\n                         kphi,\n                         kvco,\n                         N,\n                         filt=flt)\n    return f,g,p\n\ndef simulatePllOpenLoop( fstart, \n                         fstop, \n                         ptsPerDec,\n                         kphi,\n                         kvco,\n                         N,\n                         filt=None,\n                         coeffs=None):\n    """ simulate an arbitrary phase-locked loop using either\n    filter coefficients or component values. return 3 lists:\n    f (frequencies), g_ol (open-loop gain), phases (open-loop phases)  \n    """\n    f = freqPointsPerDecade( fstart, fstop, ptsPerDec )\n    if coeffs == None:\n        c1 = filt[\'c1\']\n        c2 = filt[\'c2\']\n        r2 = filt[\'r2\']\n        if \'r3\' not in filt.keys():\n            r3 = 0\n            c3 = 0\n        else:\n            c3 = filt[\'c3\']\n            r3 = filt[\'r3\']\n\n        if \'r4\' not in filt.keys():\n            r4 = 0\n            c4 = 0\n        else:\n            c4 = filt[\'c4\']\n            r4 = filt[\'r4\']\n\n        coeffs = calculateCoefficients( c1=c1,\n                                        c2=c2,\n                                        c3=c3,\n                                        c4=c4,\n                                        r2=r2,\n                                        r3=r3,\n                                        r4=r4,\n                                        flt_type=filt[\'flt_type\'])\n    a = coeffs\n    t2 = filt[\'r2\']*filt[\'c2\']\n    if len(a) == 2:\n        # 2nd order\n        a.append(0)    \n        a.append(0)    \n    elif len(a) == 3:\n        # 3rd order\n        a.append(0)    \n    else:\n        pass\n    # complex frequency variable\n    s = np.array(f)*2*np.pi*1j \n    # loop filter impedance\n    z = (1 + s*t2)/(s*(a[3]*s**3 + a[2]*s**2 + a[1]*s + a[0])) \n    # G(s)\n    g = kphi*kvco*z/s\n    # # Open-loop gain \n    g_ol = g/N\n    g_ol_db = 10*np.log10(np.absolute(g_ol))\n    ph_ol = 180 + np.angle(g_ol)*180/np.pi\n\n    # convert gains and phases to lists\n    # cannot return numpy array to javascript\n    g = []\n    p = []\n    g.extend(g_ol_db)\n    p.extend(ph_ol)\n    return f, g, p\n\ndef calculateCoefficients( c1=0, \n                           c2=0, \n                           c3=0, \n                           c4=0,\n                           r2=0,\n                           r3=0,\n                           r4=0,\n                           flt_type=\'passive\'):\n    """ return loop filter coeffiencients\n    """\n    a = []\n    if flt_type == \'passive\':\n        a.append( c1 + c2 + c3 + c4 )\n        a.append( c2*r2*(c1 + c3 + c4) + r3*(c1 + c2)*(c3 + c4) +\\\n                  c4*r4*(c1 + c2 + c3) )\n        a.append( c1*c2*r2*r3*(c3 + c4) +\\\n                  c4*r4*(c2*c3*r3 + c1*c3*r3 + c1*c2*r2 + c2*c3*r2) )\n    else:\n        a.append(c1 + c2)\n        a.append( (c1*c2*r2) + (c1 + c2) * (c3*r3 + c4*r4 + c4*r3) )\n        a.append( c3*c4*r3*r4 * (c1 + c2) + c1*c2*r2*(c3*r3 + c4*r4 + c4*r3) )\n    a.append(c1*c2*c3*r2*r3*r4)\n    return a\n\ndef calculateZ( f,\n                t2,\n                a0,\n                a1,\n                a2=0,\n                a3=0):\n    """ given the filter coefficients, return Z(s)\n    """\n    s = np.array(f)*2*np.pi*1j\n    z = (1 + s*t2)/(s*(a[3]*s**3 + a[2]*s**2 + a[1]*s + a[0]))\n    return z\n\ndef calculateG(f, z, kphi, kvco):\n    """ given the loop filter impedance, kphi and kvco, return G(s)\n    """\n    s = np.array(f)*2*np.pi*1j\n    g = kphi*kvco*z/s\n    return g\n\ndef freqPointsPerDecade( fstart, fstop, ptsPerDec ):\n    """ return an array of frequencies starting at the \n        nearest decade of 10 from fstart and ending at the \n        nearest decade of 10 at fstop. Each decade has\n        ptsPerDec points.\n    :Arguments:\n    fstart (float)\n    fstop (float)\n    ptsPerDec (int)\n    """\n    fstart = float(fstart)\n    fstop = float(fstop)\n    ptsPerDec = int(ptsPerDec)\n    num_decades = round(np.log10(fstop/fstart)/np.log10(10),0)\n    ar = []\n    istart = int(np.log10(fstart)/np.log10(10))\n    ar.append(10**istart)\n    for i in range(istart,int(num_decades)+1):\n        newDec = 10**i\n        nextDec = 10**(i+1)\n        inc = float((nextDec - newDec))/float(ptsPerDec)\n        for j in range(1,ptsPerDec):\n            val = newDec + j*inc\n            ar.append(val)\n    return ar    \n\n\n\nresponse._vars=response._caller(solveForComponents)\n'
p7
sS'snapshot'
p8
(dp9
S'exception'
p10
(dp11
S'__hash__'
p12
S"<method-wrapper '__hash__' of exceptions.NameError object>"
p13
sS'__setattr__'
p14
S"<method-wrapper '__setattr__' of exceptions.NameError object>"
p15
sS'__reduce_ex__'
p16
S'<built-in method __reduce_ex__ of exceptions.NameError object>'
p17
sS'__getslice__'
p18
S"<method-wrapper '__getslice__' of exceptions.NameError object>"
p19
sS'__getitem__'
p20
S"<method-wrapper '__getitem__' of exceptions.NameError object>"
p21
sS'__setstate__'
p22
S'<built-in method __setstate__ of exceptions.NameError object>'
p23
sS'args'
p24
S'("global name \'t1\' is not defined",)'
p25
sS'__reduce__'
p26
S'<built-in method __reduce__ of exceptions.NameError object>'
p27
sS'__str__'
p28
S"<method-wrapper '__str__' of exceptions.NameError object>"
p29
sS'__format__'
p30
S'<built-in method __format__ of exceptions.NameError object>'
p31
sS'__getattribute__'
p32
S"<method-wrapper '__getattribute__' of exceptions.NameError object>"
p33
sS'__class__'
p34
S"<type 'exceptions.NameError'>"
p35
sS'__unicode__'
p36
S'<built-in method __unicode__ of exceptions.NameError object>'
p37
sS'__delattr__'
p38
S"<method-wrapper '__delattr__' of exceptions.NameError object>"
p39
sS'__subclasshook__'
p40
S'<built-in method __subclasshook__ of type object>'
p41
sS'__repr__'
p42
S"<method-wrapper '__repr__' of exceptions.NameError object>"
p43
sS'__dict__'
p44
S'{}'
p45
sS'__sizeof__'
p46
S'<built-in method __sizeof__ of exceptions.NameError object>'
p47
sS'__doc__'
p48
S"'Name not found globally.'"
p49
sS'__init__'
p50
S"<method-wrapper '__init__' of exceptions.NameError object>"
p51
sS'__new__'
p52
S'<built-in method __new__ of type object>'
p53
ssS'evalue'
p54
S"global name 't1' is not defined"
p55
sS'request'
p56
cgluon.html
XML_unpickle
p57
(S's\xf6h\x00\x00<div><table><tr><td style="font-weight:bold;vertical-align:top;">ajax</td><td style="vertical-align:top;">:</td><td><div>True</div></td></tr><tr><td style="font-weight:bold;vertical-align:top;">application</td><td style="vertical-align:top;">:</td><td><div>webcad_blog</div></td></tr><tr><td style="font-weight:bold;vertical-align:top;">args</td><td style="vertical-align:top;">:</td><td><div><table></table></div></td></tr><tr><td style="font-weight:bold;vertical-align:top;">cid</td><td style="vertical-align:top;">:</td><td><div>None</div></td></tr><tr><td style="font-weight:bold;vertical-align:top;">client</td><td style="vertical-align:top;">:</td><td><div>127.0.0.1</div></td></tr><tr><td style="font-weight:bold;vertical-align:top;">controller</td><td style="vertical-align:top;">:</td><td><div>pll_calcs</div></td></tr><tr><td style="font-weight:bold;vertical-align:top;">cookies</td><td style="vertical-align:top;">:</td><td><div><table><tr><td style="font-weight:bold;vertical-align:top;">session_id_admin</td><td style="vertical-align:top;">:</td><td><div>127.0.0.1-f25f7aa0-3048-49f1-a82f-55d2ab55e1cf<table><tr><td style="font-weight:bold;vertical-align:top;">comment</td><td style="vertical-align:top;">:</td><td><div></div></td></tr><tr><td style="font-weight:bold;vertical-align:top;">domain</td><td style="vertical-align:top;">:</td><td><div></div></td></tr><tr><td style="font-weight:bold;vertical-align:top;">expires</td><td style="vertical-align:top;">:</td><td><div></div></td></tr><tr><td style="font-weight:bold;vertical-align:top;">httponly</td><td style="vertical-align:top;">:</td><td><div></div></td></tr><tr><td style="font-weight:bold;vertical-align:top;">max-age</td><td style="vertical-align:top;">:</td><td><div></div></td></tr><tr><td style="font-weight:bold;vertical-align:top;">path</td><td style="vertical-align:top;">:</td><td><div></div></td></tr><tr><td style="font-weight:bold;vertical-align:top;">secure</td><td style="vertical-align:top;">:</td><td><div></div></td></tr><tr><td style="font-weight:bold;vertical-align:top;">version</td><td style="vertical-align:top;">:</td><td><div></div></td></tr></table></div></td></tr><tr><td style="font-weight:bold;vertical-align:top;">session_id_myapp</td><td style="vertical-align:top;">:</td><td><div>127.0.0.1-ed658642-b403-487a-92c1-e01bef6eec54<table><tr><td style="font-weight:bold;vertical-align:top;">comment</td><td style="vertical-align:top;">:</td><td><div></div></td></tr><tr><td style="font-weight:bold;vertical-align:top;">domain</td><td style="vertical-align:top;">:</td><td><div></div></td></tr><tr><td style="font-weight:bold;vertical-align:top;">expires</td><td style="vertical-align:top;">:</td><td><div></div></td></tr><tr><td style="font-weight:bold;vertical-align:top;">httponly</td><td style="vertical-align:top;">:</td><td><div></div></td></tr><tr><td style="font-weight:bold;vertical-align:top;">max-age</td><td style="vertical-align:top;">:</td><td><div></div></td></tr><tr><td style="font-weight:bold;vertical-align:top;">path</td><td style="vertical-align:top;">:</td><td><div></div></td></tr><tr><td style="font-weight:bold;vertical-align:top;">secure</td><td style="vertical-align:top;">:</td><td><div></div></td></tr><tr><td style="font-weight:bold;vertical-align:top;">version</td><td style="vertical-align:top;">:</td><td><div></div></td></tr></table></div></td></tr><tr><td style="font-weight:bold;vertical-align:top;">session_id_pll_designer</td><td style="vertical-align:top;">:</td><td><div>127.0.0.1-de8feb66-0459-407d-86d3-db9c46208f19<table><tr><td style="font-weight:bold;vertical-align:top;">comment</td><td style="vertical-align:top;">:</td><td><div></div></td></tr><tr><td style="font-weight:bold;vertical-align:top;">domain</td><td style="vertical-align:top;">:</td><td><div></div></td></tr><tr><td style="font-weight:bold;vertical-align:top;">expires</td><td style="vertical-align:top;">:</td><td><div></div></td></tr><tr><td style="font-weight:bold;vertical-align:top;">httponly</td><td style="vertical-align:top;">:</td><td><div></div></td></tr><tr><td style="font-weight:bold;vertical-align:top;">max-age</td><td style="vertical-align:top;">:</td><td><div></div></td></tr><tr><td style="font-weight:bold;vertical-align:top;">path</td><td style="vertical-align:top;">:</td><td><div></div></td></tr><tr><td style="font-weight:bold;vertical-align:top;">secure</td><td style="vertical-align:top;">:</td><td><div></div></td></tr><tr><td style="font-weight:bold;vertical-align:top;">version</td><td style="vertical-align:top;">:</td><td><div></div></td></tr></table></div></td></tr><tr><td style="font-weight:bold;vertical-align:top;">session_id_webcad_blog</td><td style="vertical-align:top;">:</td><td><div>127.0.0.1-243297a1-ade0-4233-be39-c9b97fa4520b<table><tr><td style="font-weight:bold;vertical-align:top;">comment</td><td style="vertical-align:top;">:</td><td><div></div></td></tr><tr><td style="font-weight:bold;vertical-align:top;">domain</td><td style="vertical-align:top;">:</td><td><div></div></td></tr><tr><td style="font-weight:bold;vertical-align:top;">expires</td><td style="vertical-align:top;">:</td><td><div></div></td></tr><tr><td style="font-weight:bold;vertical-align:top;">httponly</td><td style="vertical-align:top;">:</td><td><div></div></td></tr><tr><td style="font-weight:bold;vertical-align:top;">max-age</td><td style="vertical-align:top;">:</td><td><div></div></td></tr><tr><td style="font-weight:bold;vertical-align:top;">path</td><td style="vertical-align:top;">:</td><td><div></div></td></tr><tr><td style="font-weight:bold;vertical-align:top;">secure</td><td style="vertical-align:top;">:</td><td><div></div></td></tr><tr><td style="font-weight:bold;vertical-align:top;">version</td><td style="vertical-align:top;">:</td><td><div></div></td></tr></table></div></td></tr><tr><td style="font-weight:bold;vertical-align:top;">session_id_welcome</td><td style="vertical-align:top;">:</td><td><div>127.0.0.1-b1522918-a45b-451a-86c9-794ac4cf30f0<table><tr><td style="font-weight:bold;vertical-align:top;">comment</td><td style="vertical-align:top;">:</td><td><div></div></td></tr><tr><td style="font-weight:bold;vertical-align:top;">domain</td><td style="vertical-align:top;">:</td><td><div></div></td></tr><tr><td style="font-weight:bold;vertical-align:top;">expires</td><td style="vertical-align:top;">:</td><td><div></div></td></tr><tr><td style="font-weight:bold;vertical-align:top;">httponly</td><td style="vertical-align:top;">:</td><td><div></div></td></tr><tr><td style="font-weight:bold;vertical-align:top;">max-age</td><td style="vertical-align:top;">:</td><td><div></div></td></tr><tr><td style="font-weight:bold;vertical-align:top;">path</td><td style="vertical-align:top;">:</td><td><div></div></td></tr><tr><td style="font-weight:bold;vertical-align:top;">secure</td><td style="vertical-align:top;">:</td><td><div></div></td></tr><tr><td style="font-weight:bold;vertical-align:top;">version</td><td style="vertical-align:top;">:</td><td><div></div></td></tr></table></div></td></tr></table></div></td></tr><tr><td style="font-weight:bold;vertical-align:top;">env</td><td style="vertical-align:top;">:</td><td><div><table><tr><td style="font-weight:bold;vertical-align:top;">HTTP_ACCEPT</td><td style="vertical-align:top;">:</td><td><div>*/*</div></td></tr><tr><td style="font-weight:bold;vertical-align:top;">HTTP_ACCEPT_ENCODING</td><td style="vertical-align:top;">:</td><td><div>gzip, deflate, sdch, br</div></td></tr><tr><td style="font-weight:bold;vertical-align:top;">HTTP_ACCEPT_LANGUAGE</td><td style="vertical-align:top;">:</td><td><div>en-US,en;q=0.8</div></td></tr><tr><td style="font-weight:bold;vertical-align:top;">HTTP_CONNECTION</td><td style="vertical-align:top;">:</td><td><div>keep-alive</div></td></tr><tr><td style="font-weight:bold;vertical-align:top;">HTTP_COOKIE</td><td style="vertical-align:top;">:</td><td><div>session_id_pll_designer=127.0.0.1-de8feb66-0459-407d-86d3-db9c46208f19; session_id_myapp=127.0.0.1-ed658642-b403-487a-92c1-e01bef6eec54; session_id_admin=127.0.0.1-f25f7aa0-3048-49f1-a82f-55d2ab55e1cf; session_id_welcome=127.0.0.1-b1522918-a45b-451a-86c9-794ac4cf30f0; session_id_webcad_blog=127.0.0.1-243297a1-ade0-4233-be39-c9b97fa4520b</div></td></tr><tr><td style="font-weight:bold;vertical-align:top;">HTTP_DNT</td><td style="vertical-align:top;">:</td><td><div>1</div></td></tr><tr><td style="font-weight:bold;vertical-align:top;">HTTP_HOST</td><td style="vertical-align:top;">:</td><td><div>127.0.0.1:8000</div></td></tr><tr><td style="font-weight:bold;vertical-align:top;">HTTP_REFERER</td><td style="vertical-align:top;">:</td><td><div>http://127.0.0.1:8000/webcad_blog/default/pll_designer</div></td></tr><tr><td style="font-weight:bold;vertical-align:top;">HTTP_USER_AGENT</td><td style="vertical-align:top;">:</td><td><div>Mozilla/5.0 (X11; Linux x86_64) AppleWebKit/537.36 (KHTML, like Gecko) Chrome/54.0.2840.100 Safari/537.36</div></td></tr><tr><td style="font-weight:bold;vertical-align:top;">HTTP_X_REQUESTED_WITH</td><td style="vertical-align:top;">:</td><td><div>XMLHttpRequest</div></td></tr><tr><td style="font-weight:bold;vertical-align:top;">PATH_INFO</td><td style="vertical-align:top;">:</td><td><div>/webcad_blog/pll_calcs/solveForComponents.json</div></td></tr><tr><td style="font-weight:bold;vertical-align:top;">QUERY_STRING</td><td style="vertical-align:top;">:</td><td><div>loop_type=passive3&amp;fc=10000&amp;pm=49.2&amp;kphi=0.001&amp;kvco=60000000&amp;N=39200&amp;gamma=1.136&amp;{}</div></td></tr><tr><td style="font-weight:bold;vertical-align:top;">REMOTE_ADDR</td><td style="vertical-align:top;">:</td><td><div>127.0.0.1</div></td></tr><tr><td style="font-weight:bold;vertical-align:top;">REMOTE_PORT</td><td style="vertical-align:top;">:</td><td><div>41410</div></td></tr><tr><td style="font-weight:bold;vertical-align:top;">REQUEST_METHOD</td><td style="vertical-align:top;">:</td><td><div>GET</div></td></tr><tr><td style="font-weight:bold;vertical-align:top;">SCRIPT_NAME</td><td style="vertical-align:top;">:</td><td><div></div></td></tr><tr><td style="font-weight:bold;vertical-align:top;">SERVER_NAME</td><td style="vertical-align:top;">:</td><td><div>bsmith-Satellite-P775D</div></td></tr><tr><td style="font-weight:bold;vertical-align:top;">SERVER_PORT</td><td style="vertical-align:top;">:</td><td><div>8000</div></td></tr><tr><td style="font-weight:bold;vertical-align:top;">SERVER_PROTOCOL</td><td style="vertical-align:top;">:</td><td><div>HTTP/1.1</div></td></tr><tr><td style="font-weight:bold;vertical-align:top;">SERVER_SOFTWARE</td><td style="vertical-align:top;">:</td><td><div>Rocket 1.2.6</div></td></tr><tr><td style="font-weight:bold;vertical-align:top;">app_folders</td><td style="vertical-align:top;">:</td><td><div>set([&#x27;/home/bsmith/git/webcad/web2py/applications/welcome/&#x27;, &#x27;/home/bsmith/git/webcad/web2py/applications/admin/&#x27;, &#x27;/home/bsmith/git/webcad/web2py/applications/webcad_blog/&#x27;])</div></td></tr><tr><td style="font-weight:bold;vertical-align:top;">applications_parent</td><td style="vertical-align:top;">:</td><td><div>/home/bsmith/git/webcad/web2py</div></td></tr><tr><td style="font-weight:bold;vertical-align:top;">cmd_args</td><td style="vertical-align:top;">:</td><td><div><table></table></div></td></tr><tr><td style="font-weight:bold;vertical-align:top;">cmd_options</td><td style="vertical-align:top;">:</td><td><div>&lt;Values at 0x7f3876a3d4d0: {&#x27;verbose&#x27;: False, &#x27;ip&#x27;: &#x27;127.0.0.1&#x27;, &#x27;debuglevel&#x27;: 30, &#x27;with_scheduler&#x27;: False, &#x27;shutdown_timeout&#x27;: 5, &#x27;taskbar&#x27;: False, &#x27;with_coverage&#x27;: False, &#x27;pid_filename&#x27;: &#x27;httpserver.pid&#x27;, &#x27;maxthreads&#x27;: None, &#x27;softcron&#x27;: False, &#x27;server_name&#x27;: &#x27;bsmith-Satellite-P775D&#x27;, &#x27;bpython&#x27;: False, &#x27;nogui&#x27;: False, &#x27;port&#x27;: 8000, &#x27;print_errors&#x27;: False, &#x27;extcron&#x27;: False, &#x27;runcron&#x27;: False, &#x27;run_system_tests&#x27;: False, &#x27;test&#x27;: None, &#x27;folder&#x27;: &#x27;/home/bsmith/git/webcad/web2py&#x27;, &#x27;config&#x27;: &#x27;&#x27;, &#x27;minthreads&#x27;: None, &#x27;shell&#x27;: None, &#x27;run&#x27;: &#x27;&#x27;, &#x27;log_filename&#x27;: &#x27;httpserver.log&#x27;, &#x27;profiler_dir&#x27;: None, &#x27;args&#x27;: [&#x27;&#x27;], &#x27;socket_timeout&#x27;: 5, &#x27;ssl_ca_certificate&#x27;: None, &#x27;scheduler&#x27;: None, &#x27;interfaces&#x27;: None, &#x27;ssl_private_key&#x27;: &#x27;&#x27;, &#x27;gae&#x27;: None, &#x27;password&#x27;: &#x27;******&#x27;, &#x27;request_queue_size&#x27;: 5, &#x27;ssl_certificate&#x27;: &#x27;&#x27;, &#x27;cronjob&#x27;: False, &#x27;numthreads&#x27;: None, &#x27;quiet&#x27;: False, &#x27;import_models&#x27;: False, &#x27;timeout&#x27;: 10, &#x27;plain&#x27;: False, &#x27;nobanner&#x27;: False}&gt;</div></td></tr><tr><td style="font-weight:bold;vertical-align:top;">db_sessions</td><td style="vertical-align:top;">:</td><td><div>set([])</div></td></tr><tr><td style="font-weight:bold;vertical-align:top;">debugging</td><td style="vertical-align:top;">:</td><td><div>False</div></td></tr><tr><td style="font-weight:bold;vertical-align:top;">gluon_parent</td><td style="vertical-align:top;">:</td><td><div>/home/bsmith/git/webcad/web2py</div></td></tr><tr><td style="font-weight:bold;vertical-align:top;">http_accept</td><td style="vertical-align:top;">:</td><td><div>*/*</div></td></tr><tr><td style="font-weight:bold;vertical-align:top;">http_accept_encoding</td><td style="vertical-align:top;">:</td><td><div>gzip, deflate, sdch, br</div></td></tr><tr><td style="font-weight:bold;vertical-align:top;">http_accept_language</td><td style="vertical-align:top;">:</td><td><div>en-US,en;q=0.8</div></td></tr><tr><td style="font-weight:bold;vertical-align:top;">http_connection</td><td style="vertical-align:top;">:</td><td><div>keep-alive</div></td></tr><tr><td style="font-weight:bold;vertical-align:top;">http_cookie</td><td style="vertical-align:top;">:</td><td><div>session_id_pll_designer=127.0.0.1-de8feb66-0459-407d-86d3-db9c46208f19; session_id_myapp=127.0.0.1-ed658642-b403-487a-92c1-e01bef6eec54; session_id_admin=127.0.0.1-f25f7aa0-3048-49f1-a82f-55d2ab55e1cf; session_id_welcome=127.0.0.1-b1522918-a45b-451a-86c9-794ac4cf30f0; session_id_webcad_blog=127.0.0.1-243297a1-ade0-4233-be39-c9b97fa4520b</div></td></tr><tr><td style="font-weight:bold;vertical-align:top;">http_dnt</td><td style="vertical-align:top;">:</td><td><div>1</div></td></tr><tr><td style="font-weight:bold;vertical-align:top;">http_host</td><td style="vertical-align:top;">:</td><td><div>127.0.0.1:8000</div></td></tr><tr><td style="font-weight:bold;vertical-align:top;">http_referer</td><td style="vertical-align:top;">:</td><td><div>http://127.0.0.1:8000/webcad_blog/default/pll_designer</div></td></tr><tr><td style="font-weight:bold;vertical-align:top;">http_user_agent</td><td style="vertical-align:top;">:</td><td><div>Mozilla/5.0 (X11; Linux x86_64) AppleWebKit/537.36 (KHTML, like Gecko) Chrome/54.0.2840.100 Safari/537.36</div></td></tr><tr><td style="font-weight:bold;vertical-align:top;">http_x_requested_with</td><td style="vertical-align:top;">:</td><td><div>XMLHttpRequest</div></td></tr><tr><td style="font-weight:bold;vertical-align:top;">is_jython</td><td style="vertical-align:top;">:</td><td><div>False</div></td></tr><tr><td style="font-weight:bold;vertical-align:top;">is_pypy</td><td style="vertical-align:top;">:</td><td><div>False</div></td></tr><tr><td style="font-weight:bold;vertical-align:top;">is_source</td><td style="vertical-align:top;">:</td><td><div>True</div></td></tr><tr><td style="font-weight:bold;vertical-align:top;">local_hosts</td><td style="vertical-align:top;">:</td><td><div><table><tr><td><div>127.0.1.1</div></td></tr><tr><td><div>::1</div></td></tr><tr><td><div>bsmith-Satellite-P775D</div></td></tr><tr><td><div>::ffff:127.0.0.1</div></td></tr><tr><td><div>127.0.0.1</div></td></tr></table></div></td></tr><tr><td style="font-weight:bold;vertical-align:top;">path_info</td><td style="vertical-align:top;">:</td><td><div>/webcad_blog/pll_calcs/solveForComponents.json</div></td></tr><tr><td style="font-weight:bold;vertical-align:top;">query_string</td><td style="vertical-align:top;">:</td><td><div>loop_type=passive3&amp;fc=10000&amp;pm=49.2&amp;kphi=0.001&amp;kvco=60000000&amp;N=39200&amp;gamma=1.136&amp;{}</div></td></tr><tr><td style="font-weight:bold;vertical-align:top;">remote_addr</td><td style="vertical-align:top;">:</td><td><div>127.0.0.1</div></td></tr><tr><td style="font-weight:bold;vertical-align:top;">remote_port</td><td style="vertical-align:top;">:</td><td><div>41410</div></td></tr><tr><td style="font-weight:bold;vertical-align:top;">request_method</td><td style="vertical-align:top;">:</td><td><div>GET</div></td></tr><tr><td style="font-weight:bold;vertical-align:top;">request_uri</td><td style="vertical-align:top;">:</td><td><div>/webcad_blog/pll_calcs/solveForComponents.json?loop_type=passive3&amp;fc=10000&amp;pm=49.2&amp;kphi=0.001&amp;kvco=60000000&amp;N=39200&amp;gamma=1.136&amp;{}</div></td></tr><tr><td style="font-weight:bold;vertical-align:top;">script_name</td><td style="vertical-align:top;">:</td><td><div></div></td></tr><tr><td style="font-weight:bold;vertical-align:top;">server_name</td><td style="vertical-align:top;">:</td><td><div>bsmith-Satellite-P775D</div></td></tr><tr><td style="font-weight:bold;vertical-align:top;">server_port</td><td style="vertical-align:top;">:</td><td><div>8000</div></td></tr><tr><td style="font-weight:bold;vertical-align:top;">server_protocol</td><td style="vertical-align:top;">:</td><td><div>HTTP/1.1</div></td></tr><tr><td style="font-weight:bold;vertical-align:top;">server_software</td><td style="vertical-align:top;">:</td><td><div>Rocket 1.2.6</div></td></tr><tr><td style="font-weight:bold;vertical-align:top;">web2py_path</td><td style="vertical-align:top;">:</td><td><div>/home/bsmith/git/webcad/web2py</div></td></tr><tr><td style="font-weight:bold;vertical-align:top;">web2py_version</td><td style="vertical-align:top;">:</td><td><div>2.14.6-stable+timestamp.2016.05.10.00.21.47</div></td></tr><tr><td style="font-weight:bold;vertical-align:top;">wsgi.errors</td><td style="vertical-align:top;">:</td><td><div>&lt;open file &#x27;&lt;stderr&gt;&#x27;, mode &#x27;w&#x27; at 0x7f387d0761e0&gt;</div></td></tr><tr><td style="font-weight:bold;vertical-align:top;">wsgi.file_wrapper</td><td style="vertical-align:top;">:</td><td><div>&lt;class wsgiref.util.FileWrapper at 0x7f3876adda10&gt;</div></td></tr><tr><td style="font-weight:bold;vertical-align:top;">wsgi.input</td><td style="vertical-align:top;">:</td><td><div>&lt;socket._fileobject object at 0x7f3832e99c50&gt;</div></td></tr><tr><td style="font-weight:bold;vertical-align:top;">wsgi.multiprocess</td><td style="vertical-align:top;">:</td><td><div>False</div></td></tr><tr><td style="font-weight:bold;vertical-align:top;">wsgi.multithread</td><td style="vertical-align:top;">:</td><td><div>True</div></td></tr><tr><td style="font-weight:bold;vertical-align:top;">wsgi.run_once</td><td style="vertical-align:top;">:</td><td><div>False</div></td></tr><tr><td style="font-weight:bold;vertical-align:top;">wsgi.url_scheme</td><td style="vertical-align:top;">:</td><td><div>http</div></td></tr><tr><td style="font-weight:bold;vertical-align:top;">wsgi.version</td><td style="vertical-align:top;">:</td><td><div><table><tr><td><div>1</div></td></tr><tr><td><div>0</div></td></tr></table></div></td></tr><tr><td style="font-weight:bold;vertical-align:top;">wsgi_errors</td><td style="vertical-align:top;">:</td><td><div>&lt;open file &#x27;&lt;stderr&gt;&#x27;, mode &#x27;w&#x27; at 0x7f387d0761e0&gt;</div></td></tr><tr><td style="font-weight:bold;vertical-align:top;">wsgi_file_wrapper</td><td style="vertical-align:top;">:</td><td><div>&lt;class wsgiref.util.FileWrapper at 0x7f3876adda10&gt;</div></td></tr><tr><td style="font-weight:bold;vertical-align:top;">wsgi_input</td><td style="vertical-align:top;">:</td><td><div>&lt;socket._fileobject object at 0x7f3832e99c50&gt;</div></td></tr><tr><td style="font-weight:bold;vertical-align:top;">wsgi_multiprocess</td><td style="vertical-align:top;">:</td><td><div>False</div></td></tr><tr><td style="font-weight:bold;vertical-align:top;">wsgi_multithread</td><td style="vertical-align:top;">:</td><td><div>True</div></td></tr><tr><td style="font-weight:bold;vertical-align:top;">wsgi_run_once</td><td style="vertical-align:top;">:</td><td><div>False</div></td></tr><tr><td style="font-weight:bold;vertical-align:top;">wsgi_url_scheme</td><td style="vertical-align:top;">:</td><td><div>http</div></td></tr><tr><td style="font-weight:bold;vertical-align:top;">wsgi_version</td><td style="vertical-align:top;">:</td><td><div><table><tr><td><div>1</div></td></tr><tr><td><div>0</div></td></tr></table></div></td></tr></table></div></td></tr><tr><td style="font-weight:bold;vertical-align:top;">extension</td><td style="vertical-align:top;">:</td><td><div>json</div></td></tr><tr><td style="font-weight:bold;vertical-align:top;">folder</td><td style="vertical-align:top;">:</td><td><div>/home/bsmith/git/webcad/web2py/applications/webcad_blog/</div></td></tr><tr><td style="font-weight:bold;vertical-align:top;">function</td><td style="vertical-align:top;">:</td><td><div>solveForComponents</div></td></tr><tr><td style="font-weight:bold;vertical-align:top;">global_settings</td><td style="vertical-align:top;">:</td><td><div><table><tr><td style="font-weight:bold;vertical-align:top;">app_folders</td><td style="vertical-align:top;">:</td><td><div>set([&#x27;/home/bsmith/git/webcad/web2py/applications/welcome/&#x27;, &#x27;/home/bsmith/git/webcad/web2py/applications/admin/&#x27;, &#x27;/home/bsmith/git/webcad/web2py/applications/webcad_blog/&#x27;])</div></td></tr><tr><td style="font-weight:bold;vertical-align:top;">applications_parent</td><td style="vertical-align:top;">:</td><td><div>/home/bsmith/git/webcad/web2py</div></td></tr><tr><td style="font-weight:bold;vertical-align:top;">cmd_args</td><td style="vertical-align:top;">:</td><td><div><table></table></div></td></tr><tr><td style="font-weight:bold;vertical-align:top;">cmd_options</td><td style="vertical-align:top;">:</td><td><div>&lt;Values at 0x7f3876a3d4d0: {&#x27;verbose&#x27;: False, &#x27;ip&#x27;: &#x27;127.0.0.1&#x27;, &#x27;debuglevel&#x27;: 30, &#x27;with_scheduler&#x27;: False, &#x27;shutdown_timeout&#x27;: 5, &#x27;taskbar&#x27;: False, &#x27;with_coverage&#x27;: False, &#x27;pid_filename&#x27;: &#x27;httpserver.pid&#x27;, &#x27;maxthreads&#x27;: None, &#x27;softcron&#x27;: False, &#x27;server_name&#x27;: &#x27;bsmith-Satellite-P775D&#x27;, &#x27;bpython&#x27;: False, &#x27;nogui&#x27;: False, &#x27;port&#x27;: 8000, &#x27;print_errors&#x27;: False, &#x27;extcron&#x27;: False, &#x27;runcron&#x27;: False, &#x27;run_system_tests&#x27;: False, &#x27;test&#x27;: None, &#x27;folder&#x27;: &#x27;/home/bsmith/git/webcad/web2py&#x27;, &#x27;config&#x27;: &#x27;&#x27;, &#x27;minthreads&#x27;: None, &#x27;shell&#x27;: None, &#x27;run&#x27;: &#x27;&#x27;, &#x27;log_filename&#x27;: &#x27;httpserver.log&#x27;, &#x27;profiler_dir&#x27;: None, &#x27;args&#x27;: [&#x27;&#x27;], &#x27;socket_timeout&#x27;: 5, &#x27;ssl_ca_certificate&#x27;: None, &#x27;scheduler&#x27;: None, &#x27;interfaces&#x27;: None, &#x27;ssl_private_key&#x27;: &#x27;&#x27;, &#x27;gae&#x27;: None, &#x27;password&#x27;: &#x27;******&#x27;, &#x27;request_queue_size&#x27;: 5, &#x27;ssl_certificate&#x27;: &#x27;&#x27;, &#x27;cronjob&#x27;: False, &#x27;numthreads&#x27;: None, &#x27;quiet&#x27;: False, &#x27;import_models&#x27;: False, &#x27;timeout&#x27;: 10, &#x27;plain&#x27;: False, &#x27;nobanner&#x27;: False}&gt;</div></td></tr><tr><td style="font-weight:bold;vertical-align:top;">db_sessions</td><td style="vertical-align:top;">:</td><td><div>set([])</div></td></tr><tr><td style="font-weight:bold;vertical-align:top;">debugging</td><td style="vertical-align:top;">:</td><td><div>False</div></td></tr><tr><td style="font-weight:bold;vertical-align:top;">gluon_parent</td><td style="vertical-align:top;">:</td><td><div>/home/bsmith/git/webcad/web2py</div></td></tr><tr><td style="font-weight:bold;vertical-align:top;">is_jython</td><td style="vertical-align:top;">:</td><td><div>False</div></td></tr><tr><td style="font-weight:bold;vertical-align:top;">is_pypy</td><td style="vertical-align:top;">:</td><td><div>False</div></td></tr><tr><td style="font-weight:bold;vertical-align:top;">is_source</td><td style="vertical-align:top;">:</td><td><div>True</div></td></tr><tr><td style="font-weight:bold;vertical-align:top;">local_hosts</td><td style="vertical-align:top;">:</td><td><div><table><tr><td><div>127.0.1.1</div></td></tr><tr><td><div>::1</div></td></tr><tr><td><div>bsmith-Satellite-P775D</div></td></tr><tr><td><div>::ffff:127.0.0.1</div></td></tr><tr><td><div>127.0.0.1</div></td></tr></table></div></td></tr><tr><td style="font-weight:bold;vertical-align:top;">web2py_version</td><td style="vertical-align:top;">:</td><td><div>2.14.6-stable+timestamp.2016.05.10.00.21.47</div></td></tr></table></div></td></tr><tr><td style="font-weight:bold;vertical-align:top;">is_https</td><td style="vertical-align:top;">:</td><td><div>False</div></td></tr><tr><td style="font-weight:bold;vertical-align:top;">is_local</td><td style="vertical-align:top;">:</td><td><div>True</div></td></tr><tr><td style="font-weight:bold;vertical-align:top;">is_restful</td><td style="vertical-align:top;">:</td><td><div>False</div></td></tr><tr><td style="font-weight:bold;vertical-align:top;">is_scheduler</td><td style="vertical-align:top;">:</td><td><div>False</div></td></tr><tr><td style="font-weight:bold;vertical-align:top;">is_shell</td><td style="vertical-align:top;">:</td><td><div>False</div></td></tr><tr><td style="font-weight:bold;vertical-align:top;">now</td><td style="vertical-align:top;">:</td><td><div>datetime.datetime(2016, 12, 4, 11, 26, 17, 904508)</div></td></tr><tr><td style="font-weight:bold;vertical-align:top;">raw_args</td><td style="vertical-align:top;">:</td><td><div></div></td></tr><tr><td style="font-weight:bold;vertical-align:top;">raw_extension</td><td style="vertical-align:top;">:</td><td><div>json</div></td></tr><tr><td style="font-weight:bold;vertical-align:top;">url</td><td style="vertical-align:top;">:</td><td><div>/webcad_blog/pll_calcs/solveForComponents.json</div></td></tr><tr><td style="font-weight:bold;vertical-align:top;">utcnow</td><td style="vertical-align:top;">:</td><td><div>datetime.datetime(2016, 12, 4, 17, 26, 17, 904570)</div></td></tr><tr><td style="font-weight:bold;vertical-align:top;">wsgi</td><td style="vertical-align:top;">:</td><td><div>&lt;gluon.main.LazyWSGI object at 0x7f386c563850&gt;</div></td></tr></table></div>'
tRp58
sS'frames'
p59
(lp60
(dp61
S'file'
p62
S'/home/bsmith/git/webcad/web2py/gluon/restricted.py'
p63
sS'dump'
p64
(dp65
S'environment'
p66
S"{'A': <class 'gluon.html.A'>, 'ANY_OF': <class 'gluon.validators.ANY_OF'>, 'ASSIGNJS': <function ASSIGNJS>, 'AppConfig': <function AppConfig>, 'Auth': <class 'gluon.tools.Auth'>, 'B': <class 'gluon.html.B'>, 'BEAUTIFY': <class 'gluon.html.BEAUTIFY'>, 'BODY': <class 'gluon.html.BODY'>, 'BR': <class 'gluon.html.BR'>, 'BUTTON': <class 'gluon.html.BUTTON'>, ...}"
p67
sS'ccode'
p68
S'<code object <module> at 0x7f38481ad1b0, file "/...ns/webcad_blog/controllers/pll_calcs.py", line 9>'
p69
ssS'lnum'
p70
I227
sS'lines'
p71
(dp72
I224
S'            ccode = code'
p73
sI225
S'        else:'
p74
sI226
S'            ccode = compile2(code, layer)'
p75
sI227
S'        exec ccode in environment'
p76
sI228
S'    except HTTP:'
p77
sI229
S'        raise'
p78
sI230
S'    except RestrictedError:'
p79
sI231
S'        # do not encapsulate (obfuscate) the original RestrictedError'
p80
sI222
S'    try:'
p81
sI223
S'        if isinstance(code, types.CodeType):'
p82
ssS'call'
p83
S"(code='#\\n#-*- coding: utf-8 -*-\\n# \\n\\n# -----------------...ponse._vars=response._caller(solveForComponents)\\n', environment={'A': <class 'gluon.html.A'>, 'ANY_OF': <class 'gluon.validators.ANY_OF'>, 'ASSIGNJS': <function ASSIGNJS>, 'AppConfig': <function AppConfig>, 'Auth': <class 'gluon.tools.Auth'>, 'B': <class 'gluon.html.B'>, 'BEAUTIFY': <class 'gluon.html.BEAUTIFY'>, 'BODY': <class 'gluon.html.BODY'>, 'BR': <class 'gluon.html.BR'>, 'BUTTON': <class 'gluon.html.BUTTON'>, ...}, layer='/home/bsmith/git/webcad/web2py/applications/webcad_blog/controllers/pll_calcs.py')"
p84
sS'func'
p85
S'restricted'
p86
sa(dp87
g62
S'/home/bsmith/git/webcad/web2py/applications/webcad_blog/controllers/pll_calcs.py'
p88
sg64
(dp89
sg70
I538
sg71
(dp90
I527
S'    for i in range(istart,int(num_decades)+1):'
p91
sI528
S'        newDec = 10**i'
p92
sI529
S'        nextDec = 10**(i+1)'
p93
sI530
S'        inc = float((nextDec - newDec))/float(ptsPerDec)'
p94
sI531
S'        for j in range(1,ptsPerDec):'
p95
sI532
S'            val = newDec + j*inc'
p96
sI533
S'            ar.append(val)'
p97
sI534
S'    return ar'
p98
sI535
S''
sI536
S''
ssg83
S'()'
p99
sg85
S'<module>'
p100
sa(dp101
g62
S'/home/bsmith/git/webcad/web2py/gluon/globals.py'
p102
sg64
(dp103
S'self'
p104
S'undefined'
p105
sS'f'
S'<function solveForComponents>'
p106
ssg70
I417
sg71
(dp107
I416
S'        self._vars = None'
p108
sI417
S'        self._caller = lambda f: f()'
p109
sI418
S'        self._view_environment = None'
p110
sI419
S'        self._custom_commit = None'
p111
sI420
S'        self._custom_rollback = None'
p112
sI421
S"        self.generic_patterns = ['*']"
p113
sI412
S"        self.flash = ''            # used by the default view layout"
p114
sI413
S'        self.meta = Storage()      # used by web2py_ajax.html'
p115
sI414
S'        self.menu = []             # used by the default view layout'
p116
sI415
S'        self.files = []            # used by web2py_ajax.html'
p117
ssg83
S'(f=<function solveForComponents>)'
p118
sg85
S'<lambda>'
p119
sa(dp120
g62
S'/home/bsmith/git/webcad/web2py/applications/webcad_blog/controllers/pll_calcs.py'
p121
sg64
(dp122
S'pll'
p123
S'<__restricted__.PllThirdOrderPassive object>'
p124
sS'd'
g105
sS'pll.calc_components'
p125
S'<bound method PllThirdOrderPassive.calc_components of <__restricted__.PllThirdOrderPassive object>>'
p126
ssg70
I66
sg71
(dp127
I64
S'                                    N,'
p128
sI65
S'                                    gamma=gamma )'
p129
sI66
S'        d = pll.calc_components()'
p130
sI67
S'    return d'
p131
sI68
S''
sI69
S'class PllSecondOrderPassive( object ):'
p132
sI70
S'    def __init__(self,'
p133
sI61
S'                                    pm,'
p134
sI62
S'                                    kphi,'
p135
sI63
S'                                    kvco,'
p136
ssg83
S'()'
p137
sg85
S'solveForComponents'
p138
sa(dp139
g62
S'/home/bsmith/git/webcad/web2py/applications/webcad_blog/controllers/pll_calcs.py'
p140
sg64
(dp141
S'd'
S"{'t1': 3.862778936228074e-06}"
p142
sS'self'
p143
S'<__restricted__.PllThirdOrderPassive object>'
p144
sS't3'
p145
S'2.3176673617368445e-06'
p146
sS't1'
p147
g105
sS'self.gamma'
p148
S'1.136'
p149
sS'omega_c'
p150
S'62831.853071795864'
p151
ssg70
I240
sg71
(dp152
I235
S'                               self.gamma)'
p153
sI236
S''
sI237
S"        t3 = d['t1']*self.t31"
p154
sI238
S''
sI239
S'        omega_c = 2*np.pi*self.fc'
p155
sI240
S"        d['t2'] = self.gamma/( (omega_c**2)*(t1 + t3 ) )"
p156
sI241
S''
sI242
S"        d['a0'] = self.calc_a0(self.kphi,"
p157
sI243
S'                               self.kvco,'
p158
sI244
S'                               self.N,'
p159
ssg83
S'(self=<__restricted__.PllThirdOrderPassive object>)'
p160
sg85
S'calc_components'
p161
sasS'pyver'
p162
S'Python 2.7.12: /usr/bin/python (prefix: /usr)'
p163
sS'session'
p164
g57
(S's\x1a\x00\x00\x00<div><table></table></div>'
tRp165
sS'etype'
p166
S"<type 'exceptions.NameError'>"
p167
sS'date'
p168
S'Sun Dec  4 11:26:17 2016'
p169
sS'response'
p170
g57
(S'sh\x1f\x00\x00<div><table><tr><td style="font-weight:bold;vertical-align:top;">body</td><td style="vertical-align:top;">:</td><td><div>&lt;cStringIO.StringO object at 0x7f3832edb298&gt;</div></td></tr><tr><td style="font-weight:bold;vertical-align:top;">cookies</td><td style="vertical-align:top;">:</td><td><div><table><tr><td style="font-weight:bold;vertical-align:top;">session_id_webcad_blog</td><td style="vertical-align:top;">:</td><td><div>127.0.0.1-6e4da682-e2dc-4629-bafe-01530b963a62<table><tr><td style="font-weight:bold;vertical-align:top;">comment</td><td style="vertical-align:top;">:</td><td><div></div></td></tr><tr><td style="font-weight:bold;vertical-align:top;">domain</td><td style="vertical-align:top;">:</td><td><div></div></td></tr><tr><td style="font-weight:bold;vertical-align:top;">expires</td><td style="vertical-align:top;">:</td><td><div></div></td></tr><tr><td style="font-weight:bold;vertical-align:top;">httponly</td><td style="vertical-align:top;">:</td><td><div></div></td></tr><tr><td style="font-weight:bold;vertical-align:top;">max-age</td><td style="vertical-align:top;">:</td><td><div></div></td></tr><tr><td style="font-weight:bold;vertical-align:top;">path</td><td style="vertical-align:top;">:</td><td><div>/</div></td></tr><tr><td style="font-weight:bold;vertical-align:top;">secure</td><td style="vertical-align:top;">:</td><td><div></div></td></tr><tr><td style="font-weight:bold;vertical-align:top;">version</td><td style="vertical-align:top;">:</td><td><div></div></td></tr></table></div></td></tr></table></div></td></tr><tr><td style="font-weight:bold;vertical-align:top;">delimiters</td><td style="vertical-align:top;">:</td><td><div><table><tr><td><div>{{</div></td></tr><tr><td><div>}}</div></td></tr></table></div></td></tr><tr><td style="font-weight:bold;vertical-align:top;">files</td><td style="vertical-align:top;">:</td><td><div><table></table></div></td></tr><tr><td style="font-weight:bold;vertical-align:top;">flash</td><td style="vertical-align:top;">:</td><td><div></div></td></tr><tr><td style="font-weight:bold;vertical-align:top;">form_label_separator</td><td style="vertical-align:top;">:</td><td><div></div></td></tr><tr><td style="font-weight:bold;vertical-align:top;">formstyle</td><td style="vertical-align:top;">:</td><td><div>bootstrap3_inline</div></td></tr><tr><td style="font-weight:bold;vertical-align:top;">generic_patterns</td><td style="vertical-align:top;">:</td><td><div><table><tr><td><div>*</div></td></tr></table></div></td></tr><tr><td style="font-weight:bold;vertical-align:top;">google_analytics_id</td><td style="vertical-align:top;">:</td><td><div>None</div></td></tr><tr><td style="font-weight:bold;vertical-align:top;">headers</td><td style="vertical-align:top;">:</td><td><div><table><tr><td style="font-weight:bold;vertical-align:top;">X-Powered-By</td><td style="vertical-align:top;">:</td><td><div>web2py</div></td></tr></table></div></td></tr><tr><td style="font-weight:bold;vertical-align:top;">logo</td><td style="vertical-align:top;">:</td><td><div><a class="navbar-brand" href="http://www.web2py.com/" id="web2py-logo"><b>web<span>2</span>py</b>&trade;&nbsp;</a></div></td></tr><tr><td style="font-weight:bold;vertical-align:top;">menu</td><td style="vertical-align:top;">:</td><td><div><table><tr><td><div><table><tr><td><div>Home</div></td></tr><tr><td><div>False</div></td></tr><tr><td><div>/webcad_blog/default/index.json</div></td></tr><tr><td><div><table></table></div></td></tr></table></div></td></tr><tr><td><div><table><tr><td><div>Blog</div></td></tr><tr><td><div>False</div></td></tr><tr><td><div>/webcad_blog/default/blog_home.json</div></td></tr></table></div></td></tr><tr><td><div><table><tr><td><div>Tools</div></td></tr><tr><td><div>False</div></td></tr><tr><td><div>#</div></td></tr><tr><td><div><table><tr><td><div><table><tr><td><div>PLL Designer</div></td></tr><tr><td><div>False</div></td></tr><tr><td><div>/webcad_blog/default/pll_designer.json</div></td></tr></table></div></td></tr><tr><td><div><table><tr><td><div>Test Page</div></td></tr><tr><td><div>False</div></td></tr><tr><td><div>/webcad_blog/default/test_page.json</div></td></tr></table></div></td></tr></table></div></td></tr></table></div></td></tr></table></div></td></tr><tr><td style="font-weight:bold;vertical-align:top;">meta</td><td style="vertical-align:top;">:</td><td><div><table><tr><td style="font-weight:bold;vertical-align:top;">author</td><td style="vertical-align:top;">:</td><td><div>Your Name &lt;you@example.com&gt;</div></td></tr><tr><td style="font-weight:bold;vertical-align:top;">description</td><td style="vertical-align:top;">:</td><td><div>a cool new app</div></td></tr><tr><td style="font-weight:bold;vertical-align:top;">generator</td><td style="vertical-align:top;">:</td><td><div>Web2py Web Framework</div></td></tr><tr><td style="font-weight:bold;vertical-align:top;">keywords</td><td style="vertical-align:top;">:</td><td><div><table><tr><td><div>web2py</div></td></tr><tr><td><div>python</div></td></tr><tr><td><div>framework</div></td></tr></table></div></td></tr></table></div></td></tr><tr><td style="font-weight:bold;vertical-align:top;">models_to_run</td><td style="vertical-align:top;">:</td><td><div><table><tr><td><div>^\\w+\\.py$</div></td></tr><tr><td><div>^pll_calcs/\\w+\\.py$</div></td></tr><tr><td><div>^pll_calcs/solveForComponents/\\w+\\.py$</div></td></tr></table></div></td></tr><tr><td style="font-weight:bold;vertical-align:top;">postprocessing</td><td style="vertical-align:top;">:</td><td><div><table></table></div></td></tr><tr><td style="font-weight:bold;vertical-align:top;">session_client</td><td style="vertical-align:top;">:</td><td><div>127.0.0.1</div></td></tr><tr><td style="font-weight:bold;vertical-align:top;">session_cookie_compression_level</td><td style="vertical-align:top;">:</td><td><div>None</div></td></tr><tr><td style="font-weight:bold;vertical-align:top;">session_cookie_expires</td><td style="vertical-align:top;">:</td><td><div>None</div></td></tr><tr><td style="font-weight:bold;vertical-align:top;">session_data_name</td><td style="vertical-align:top;">:</td><td><div>session_data_webcad_blog</div></td></tr><tr><td style="font-weight:bold;vertical-align:top;">session_file</td><td style="vertical-align:top;">:</td><td><div>None</div></td></tr><tr><td style="font-weight:bold;vertical-align:top;">session_filename</td><td style="vertical-align:top;">:</td><td><div>/home/bsmith/git/webcad/web2py/applications/webcad_blog/sessions/127.0.0.1-6e4da682-e2dc-4629-bafe-01530b963a62</div></td></tr><tr><td style="font-weight:bold;vertical-align:top;">session_hash</td><td style="vertical-align:top;">:</td><td><div>c0762cbf4baf7f9af97c051e7fcb8083</div></td></tr><tr><td style="font-weight:bold;vertical-align:top;">session_id</td><td style="vertical-align:top;">:</td><td><div>127.0.0.1-6e4da682-e2dc-4629-bafe-01530b963a62</div></td></tr><tr><td style="font-weight:bold;vertical-align:top;">session_id_name</td><td style="vertical-align:top;">:</td><td><div>session_id_webcad_blog</div></td></tr><tr><td style="font-weight:bold;vertical-align:top;">session_masterapp</td><td style="vertical-align:top;">:</td><td><div>webcad_blog</div></td></tr><tr><td style="font-weight:bold;vertical-align:top;">session_new</td><td style="vertical-align:top;">:</td><td><div>True</div></td></tr><tr><td style="font-weight:bold;vertical-align:top;">session_storage_type</td><td style="vertical-align:top;">:</td><td><div>file</div></td></tr><tr><td style="font-weight:bold;vertical-align:top;">status</td><td style="vertical-align:top;">:</td><td><div>200</div></td></tr><tr><td style="font-weight:bold;vertical-align:top;">subtitle</td><td style="vertical-align:top;">:</td><td><div></div></td></tr><tr><td style="font-weight:bold;vertical-align:top;">title</td><td style="vertical-align:top;">:</td><td><div>Webcad Blog</div></td></tr><tr><td style="font-weight:bold;vertical-align:top;">view</td><td style="vertical-align:top;">:</td><td><div>pll_calcs/solveForComponents.json</div></td></tr></table></div>'
tRp171
sS'locals'
p172
(dp173
S'omega_c'
p174
S'62831.853071795864'
p175
sS'self'
p176
S'<__restricted__.PllThirdOrderPassive object>'
p177
sS't3'
p178
S'2.3176673617368445e-06'
p179
sS'd'
S"{'t1': 3.862778936228074e-06}"
p180
sssS'traceback'
p181
S'Traceback (most recent call last):\n  File "/home/bsmith/git/webcad/web2py/gluon/restricted.py", line 227, in restricted\n    exec ccode in environment\n  File "/home/bsmith/git/webcad/web2py/applications/webcad_blog/controllers/pll_calcs.py", line 538, in <module>\n  File "/home/bsmith/git/webcad/web2py/gluon/globals.py", line 417, in <lambda>\n    self._caller = lambda f: f()\n  File "/home/bsmith/git/webcad/web2py/applications/webcad_blog/controllers/pll_calcs.py", line 66, in solveForComponents\n    d = pll.calc_components()\n  File "/home/bsmith/git/webcad/web2py/applications/webcad_blog/controllers/pll_calcs.py", line 240, in calc_components\n    d[\'t2\'] = self.gamma/( (omega_c**2)*(t1 + t3 ) )\nNameError: global name \'t1\' is not defined\n'
p182
s.