(dp1
S'output'
p2
S"<type 'exceptions.TypeError'> array([  1.34348282e-01,   1.46439549e-01,   1.58530795e-01,\n         1.70622020e-01,   1.82713220e-01,   1.94804396e-01,\n         2.06895544e-01,   2.18986664e-01,   2.31077753e-01,\n         2.43168810e-01,   2.55259833e-01,   2.67350821e-01,\n         2.79441772e-01,   2.91532684e-01,   3.03623555e-01,\n         3.15714384e-01,   3.27805170e-01,   3.39895910e-01,\n         3.51986603e-01,   3.64077247e-01,   3.76167840e-01,\n         3.88258381e-01,   4.00348869e-01,   4.12439300e-01,\n         4.24529675e-01,   4.36619990e-01,   4.48710245e-01,\n         4.60800438e-01,   4.72890566e-01,   4.84980629e-01,\n         4.97070625e-01,   5.09160552e-01,   5.21250408e-01,\n         5.33340191e-01,   5.45429901e-01,   5.57519535e-01,\n         5.69609091e-01,   5.81698569e-01,   5.93787966e-01,\n         6.05877280e-01,   6.17966510e-01,   6.30055654e-01,\n         6.42144711e-01,   6.54233679e-01,   6.66322556e-01,\n         6.78411341e-01,   6.90500031e-01,   7.02588626e-01,\n         7.14677123e-01,   7.26765520e-01,   7.38853817e-01,\n         7.50942012e-01,   7.63030102e-01,   7.75118086e-01,\n         7.87205963e-01,   7.99293731e-01,   8.11381387e-01,\n         8.23468931e-01,   8.35556361e-01,   8.47643675e-01,\n         8.59730871e-01,   8.71817947e-01,   8.83904903e-01,\n         8.95991736e-01,   9.08078445e-01,   9.20165028e-01,\n         9.32251483e-01,   9.44337809e-01,   9.56424004e-01,\n         9.68510066e-01,   9.80595993e-01,   9.92681785e-01,\n         1.00476744e+00,   1.01685295e+00,   1.02893833e+00,\n         1.04102356e+00,   1.05310864e+00,   1.06519358e+00,\n         1.07727838e+00,   1.08936302e+00,   1.10144751e+00,\n         1.11353185e+00,   1.12561603e+00,   1.13770006e+00,\n         1.14978393e+00,   1.16186764e+00,   1.17395119e+00,\n         1.18603458e+00,   1.19811780e+00,   1.21020086e+00,\n         1.22228375e+00,   1.23436647e+00,   1.24644901e+00,\n         1.25853139e+00,   1.27061359e+00,   1.28269561e+00,\n         1.29477746e+00,   1.30685913e+00,   1.31894061e+00,\n         1.33102191e+00,   1.46390369e+00,   1.58468406e+00,\n         1.70544246e+00,   1.82617722e+00,   1.94688669e+00,\n         2.06756920e+00,   2.18822309e+00,   2.30884669e+00,\n         2.42943834e+00,   2.54999640e+00,   2.67051921e+00,\n         2.79100512e+00,   2.91145248e+00,   3.03185965e+00,\n         3.15222498e+00,   3.27254683e+00,   3.39282357e+00,\n         3.51305356e+00,   3.63323518e+00,   3.75336680e+00,\n         3.87344679e+00,   3.99347354e+00,   4.11344543e+00,\n         4.23336085e+00,   4.35321820e+00,   4.47301586e+00,\n         4.59275224e+00,   4.71242575e+00,   4.83203479e+00,\n         4.95157778e+00,   5.07105314e+00,   5.19045928e+00,\n         5.30979465e+00,   5.42905767e+00,   5.54824678e+00,\n         5.66736043e+00,   5.78639706e+00,   5.90535512e+00,\n         6.02423309e+00,   6.14302941e+00,   6.26174256e+00,\n         6.38037103e+00,   6.49891328e+00,   6.61736782e+00,\n         6.73573312e+00,   6.85400770e+00,   6.97219006e+00,\n         7.09027871e+00,   7.20827217e+00,   7.32616897e+00,\n         7.44396763e+00,   7.56166671e+00,   7.67926473e+00,\n         7.79676026e+00,   7.91415186e+00,   8.03143808e+00,\n         8.14861751e+00,   8.26568872e+00,   8.38265030e+00,\n         8.49950084e+00,   8.61623895e+00,   8.73286324e+00,\n         8.84937232e+00,   8.96576481e+00,   9.08203936e+00,\n         9.19819459e+00,   9.31422916e+00,   9.43014172e+00,\n         9.54593093e+00,   9.66159547e+00,   9.77713402e+00,\n         9.89254525e+00,   1.00078279e+01,   1.01229806e+01,\n         1.02380021e+01,   1.03528911e+01,   1.04676464e+01,\n         1.05822667e+01,   1.06967507e+01,   1.08110972e+01,\n         1.09253050e+01,   1.10393727e+01,   1.11532993e+01,\n         1.12670835e+01,   1.13807240e+01,   1.14942198e+01,\n         1.16075695e+01,   1.17207721e+01,   1.18338263e+01,\n         1.19467311e+01,   1.20594852e+01,   1.21720875e+01,\n         1.22845370e+01,   1.23968323e+01,   1.25089726e+01,\n         1.26209566e+01,   1.27327832e+01,   1.28444514e+01,\n         1.29559601e+01,   1.41717303e+01,   1.52589921e+01,\n         1.63281841e+01,   1.73784927e+01,   1.84091998e+01,\n         1.94196818e+01,   2.04094076e+01,   2.13779351e+01,\n         2.23249081e+01,   2.32500524e+01,   2.41531709e+01,\n         2.50341392e+01,   2.58929005e+01,   2.67294607e+01,\n         2.75438832e+01,   2.83362836e+01,   2.91068252e+01,\n         2.98557138e+01,   3.05831933e+01,   3.12895410e+01,\n         3.19750635e+01,   3.26400930e+01,   3.32849829e+01,\n         3.39101054e+01,   3.45158473e+01,   3.51026077e+01,\n         3.56707952e+01,   3.62208253e+01,   3.67531186e+01,\n         3.72680985e+01,   3.77661894e+01,   3.82478155e+01,\n         3.87133991e+01,   3.91633597e+01,   3.95981124e+01,\n         4.00180676e+01,   4.04236300e+01,   4.08151977e+01,\n         4.11931619e+01,   4.15579065e+01,   4.19098074e+01,\n         4.22492325e+01,   4.25765414e+01,   4.28920852e+01,\n         4.31962063e+01,   4.34892385e+01,   4.37715069e+01,\n         4.40433278e+01,   4.43050091e+01,   4.45568499e+01,\n         4.47991409e+01,   4.50321646e+01,   4.52561949e+01,\n         4.54714980e+01,   4.56783320e+01,   4.58769473e+01,\n         4.60675866e+01,   4.62504854e+01,   4.64258718e+01,\n         4.65939670e+01,   4.67549852e+01,   4.69091341e+01,\n         4.70566150e+01,   4.71976226e+01,   4.73323459e+01,\n         4.74609676e+01,   4.75836651e+01,   4.77006100e+01,\n         4.78119684e+01,   4.79179014e+01,   4.80185652e+01,\n         4.81141108e+01,   4.82046846e+01,   4.82904286e+01,\n         4.83714801e+01,   4.84479725e+01,   4.85200348e+01,\n         4.85877921e+01,   4.86513657e+01,   4.87108730e+01,\n         4.87664281e+01,   4.88181414e+01,   4.88661201e+01,\n         4.89104679e+01,   4.89512857e+01,   4.89886711e+01,\n         4.90227190e+01,   4.90535214e+01,   4.90811673e+01,\n         4.91057435e+01,   4.91273340e+01,   4.91460204e+01,\n         4.91618817e+01,   4.91749951e+01,   4.91854350e+01,\n         4.91932740e+01,   4.91985826e+01,   4.92014291e+01,\n         4.92018801e+01,   4.90659731e+01,   4.87580132e+01,\n         4.83174772e+01,   4.77762038e+01,   4.71589585e+01,\n         4.64851755e+01,   4.57702168e+01,   4.50262946e+01,\n         4.42631573e+01,   4.34886078e+01,   4.27088978e+01,\n         4.19290344e+01,   4.11530185e+01,   4.03840344e+01,\n         3.96245999e+01,   3.88766873e+01,   3.81418220e+01,\n         3.74211616e+01,   3.67155616e+01,   3.60256294e+01,\n         3.53517680e+01,   3.46942133e+01,   3.40530647e+01,\n         3.34283098e+01,   3.28198462e+01,   3.22274988e+01,\n         3.16510345e+01,   3.10901749e+01,   3.05446056e+01,\n         3.00139857e+01,   2.94979541e+01,   2.89961361e+01,\n         2.85081477e+01,   2.80335996e+01,   2.75721011e+01,\n         2.71232620e+01,   2.66866956e+01,   2.62620199e+01,\n         2.58488589e+01,   2.54468445e+01,   2.50556163e+01,\n         2.46748234e+01,   2.43041236e+01,   2.39431849e+01,\n         2.35916849e+01,   2.32493113e+01,   2.29157619e+01,\n         2.25907442e+01,   2.22739759e+01,   2.19651841e+01,\n         2.16641057e+01,   2.13704867e+01,   2.10840825e+01,\n         2.08046569e+01,   2.05319829e+01,   2.02658412e+01,\n         2.00060212e+01,   1.97523195e+01,   1.95045408e+01,\n         1.92624965e+01,   1.90260055e+01,   1.87948932e+01,\n         1.85689915e+01,   1.83481386e+01,   1.81321786e+01,\n         1.79209615e+01,   1.77143428e+01,   1.75121833e+01,\n         1.73143489e+01,   1.71207104e+01,   1.69311434e+01,\n         1.67455279e+01,   1.65637483e+01,   1.63856932e+01,\n         1.62112551e+01,   1.60403304e+01,   1.58728192e+01,\n         1.57086250e+01,   1.55476550e+01,   1.53898192e+01,\n         1.52350311e+01,   1.50832070e+01,   1.49342662e+01,\n         1.47881306e+01,   1.46447249e+01,   1.45039764e+01,\n         1.43658146e+01,   1.42301715e+01,   1.40969815e+01,\n         1.39661809e+01,   1.38377083e+01,   1.37115042e+01,\n         1.35875110e+01,   1.34656731e+01,   1.33459365e+01,\n         1.32282492e+01,   1.31125604e+01,   1.29988214e+01,\n         1.28869846e+01,   1.17701436e+01,   1.09074894e+01,\n         1.01606563e+01,   9.50812861e+00,   8.93333387e+00,\n         8.42332038e+00,   7.96783126e+00,   7.55864565e+00,\n         7.18910206e+00,   6.85374843e+00,   6.54808166e+00,\n         6.26835112e+00,   6.01140876e+00,   5.77459344e+00,\n         5.55564080e+00,   5.35261229e+00,   5.16383889e+00,\n         4.98787602e+00,   4.82346719e+00,   4.66951445e+00,\n         4.52505426e+00,   4.38923754e+00,   4.26131330e+00,\n         4.14061482e+00,   4.02654826e+00,   3.91858294e+00,\n         3.81624321e+00,   3.71910149e+00,   3.62677238e+00,\n         3.53890758e+00,   3.45519155e+00,   3.37533774e+00,\n         3.29908537e+00,   3.22619656e+00,   3.15645390e+00,\n         3.08965831e+00,   3.02562711e+00,   2.96419241e+00,\n         2.90519963e+00,   2.84850619e+00,   2.79398040e+00,\n         2.74150040e+00,   2.69095333e+00,   2.64223444e+00,\n         2.59524640e+00,   2.54989869e+00,   2.50610697e+00,\n         2.46379258e+00,   2.42288207e+00,   2.38330678e+00,\n         2.34500244e+00,   2.30790886e+00,   2.27196956e+00,\n         2.23713153e+00,   2.20334496e+00,   2.17056299e+00,\n         2.13874150e+00,   2.10783892e+00,   2.07781604e+00,\n         2.04863584e+00,   2.02026337e+00,   1.99266555e+00,\n         1.96581113e+00,   1.93967046e+00,   1.91421549e+00,\n         1.88941961e+00,   1.86525755e+00,   1.84170533e+00,\n         1.81874016e+00,   1.79634038e+00,   1.77448538e+00,\n         1.75315551e+00,   1.73233210e+00,   1.71199733e+00,\n         1.69213419e+00,   1.67272649e+00,   1.65375873e+00,\n         1.63521613e+00,   1.61708457e+00,   1.59935053e+00,\n         1.58200109e+00,   1.56502387e+00,   1.54840702e+00,\n         1.53213920e+00,   1.51620953e+00,   1.50060758e+00,\n         1.48532333e+00,   1.47034719e+00,   1.45566994e+00,\n         1.44128272e+00,   1.42717702e+00,   1.41334465e+00,\n         1.39977777e+00,   1.38646878e+00,   1.37341042e+00,\n         1.36059568e+00,   1.34801779e+00,   1.33567026e+00,\n         1.32354681e+00,   1.20339261e+00,   1.11164582e+00,\n         1.03289538e+00,   9.64562856e-01,   9.04709461e-01,\n         8.51849352e-01,   8.04824651e-01,   7.62719702e-01,\n         7.24800884e-01,   6.90473521e-01,   6.59250473e-01,\n         6.30728885e-01,   6.04572715e-01,   5.80499432e-01,\n         5.58269776e-01,   5.37679778e-01,   5.18554488e-01,\n         5.00742986e-01,   4.84114400e-01,   4.68554680e-01,\n         4.53963978e-01,   4.40254511e-01,   4.27348785e-01,\n         4.15178132e-01,   4.03681493e-01,   3.92804387e-01,\n         3.82498050e-01,   3.72718706e-01,   3.63426943e-01,\n         3.54587185e-01,   3.46167232e-01,   3.38137874e-01,\n         3.30472548e-01,   3.23147046e-01,   3.16139262e-01,\n         3.09428965e-01,   3.02997605e-01,   2.96828144e-01,\n         2.90904904e-01,   2.85213435e-01,   2.79740393e-01,\n         2.74473441e-01,   2.69401154e-01,   2.64512936e-01,\n         2.59798946e-01,   2.55250032e-01,   2.50857672e-01,\n         2.46613922e-01,   2.42511364e-01,   2.38543068e-01,\n         2.34702550e-01,   2.30983735e-01,   2.27380928e-01,\n         2.23888786e-01,   2.20502285e-01,   2.17216704e-01,\n         2.14027599e-01,   2.10930780e-01,   2.07922300e-01,\n         2.04998432e-01,   2.02155656e-01,   1.99390644e-01,\n         1.96700249e-01,   1.94081490e-01,   1.91531544e-01,\n         1.89047734e-01,   1.86627519e-01,   1.84268489e-01,\n         1.81968352e-01,   1.79724929e-01,   1.77536150e-01,\n         1.75400041e-01,   1.73314723e-01,   1.71278407e-01,\n         1.69289386e-01,   1.67346030e-01,   1.65446785e-01,\n         1.63590166e-01,   1.61774754e-01,   1.59999192e-01,\n         1.58262182e-01,   1.56562482e-01,   1.54898903e-01,\n         1.53270305e-01,   1.51675597e-01,   1.50113731e-01,\n         1.48583704e-01,   1.47084552e-01,   1.45615348e-01,\n         1.44175206e-01,   1.42763271e-01,   1.41378722e-01,\n         1.40020771e-01,   1.38688657e-01,   1.37381652e-01,\n         1.36099050e-01,   1.34840176e-01,   1.33604377e-01,\n         1.32391024e-01,   1.20366576e-01,   1.11186112e-01,\n         1.03306809e-01,   9.64703500e-02,   9.04825512e-02,\n         8.51946224e-02,   8.04906348e-02,   7.62789235e-02,\n         7.24860553e-02,   6.90525106e-02,   6.59295372e-02,\n         6.30768205e-02,   6.04607342e-02,   5.80530085e-02,\n         5.58297040e-02,   5.37704136e-02,   5.18576337e-02,\n         5.00762661e-02,   4.84132179e-02,   4.68570799e-02,\n         4.53978638e-02,   4.40267882e-02,   4.27361014e-02,\n         4.15189346e-02,   4.03691801e-02,   3.92813884e-02,\n         3.82506819e-02,   3.72726819e-02,   3.63434465e-02,\n         3.54594171e-02,   3.46173732e-02,   3.38143932e-02,\n         3.30478203e-02,   3.23152334e-02,   3.16144213e-02,\n         3.09433607e-02,   3.03001963e-02,   2.96832242e-02,\n         2.90908762e-02,   2.85217070e-02,   2.79743823e-02,\n         2.74476681e-02,   2.69404218e-02,   2.64515836e-02,\n         2.59801693e-02,   2.55252637e-02,   2.50860146e-02,\n         2.46616272e-02,   2.42513599e-02,   2.38545195e-02,\n         2.34704576e-02,   2.30985666e-02,   2.27382770e-02,\n         2.23890544e-02,   2.20503965e-02,   2.17218310e-02,\n         2.14029135e-02,   2.10932251e-02,   2.07923709e-02,\n         2.04999782e-02,   2.02156950e-02,   1.99391886e-02,\n         1.96701441e-02,   1.94082635e-02,   1.91532645e-02,\n         1.89048792e-02,   1.86628538e-02,   1.84269469e-02,\n         1.81969296e-02,   1.79725839e-02,   1.77537027e-02,\n         1.75400886e-02,   1.73315539e-02,   1.71279195e-02,\n         1.69290146e-02,   1.67346765e-02,   1.65447495e-02,\n         1.63590852e-02,   1.61775418e-02,   1.59999834e-02,\n         1.58262803e-02,   1.56563084e-02,   1.54899486e-02,\n         1.53270870e-02,   1.51676144e-02,   1.50114261e-02,\n         1.48584218e-02,   1.47085050e-02,   1.45615832e-02,\n         1.44175676e-02,   1.42763727e-02,   1.41379165e-02,\n         1.40021201e-02,   1.38689075e-02,   1.37382058e-02,\n         1.36099445e-02,   1.34840561e-02,   1.33604751e-02,\n         1.32391388e-02]) is not JSON serializable"
p3
sS'layer'
p4
S'/home/bsmith/git/webcad/web2py/applications/webcad_blog/views/generic.json'
p5
sS'code'
p6
S"from gluon.serializers import json\nresponse.write(XML(json(response._vars)))\nresponse.write('\\n', escape=False)"
p7
sS'snapshot'
p8
(dp9
S'exception'
p10
(dp11
S'__hash__'
p12
S"<method-wrapper '__hash__' of exceptions.TypeError object>"
p13
sS'__setattr__'
p14
S"<method-wrapper '__setattr__' of exceptions.TypeError object>"
p15
sS'__reduce_ex__'
p16
S'<built-in method __reduce_ex__ of exceptions.TypeError object>'
p17
sS'__getslice__'
p18
S"<method-wrapper '__getslice__' of exceptions.TypeError object>"
p19
sS'__getitem__'
p20
S"<method-wrapper '__getitem__' of exceptions.TypeError object>"
p21
sS'__setstate__'
p22
S'<built-in method __setstate__ of exceptions.TypeError object>'
p23
sS'args'
p24
S"('array([  1.34348282e-01,   1.46439549e-01,   1.5...        1.32391388e-02]) is not JSON serializable',)"
p25
sS'__reduce__'
p26
S'<built-in method __reduce__ of exceptions.TypeError object>'
p27
sS'__str__'
p28
S"<method-wrapper '__str__' of exceptions.TypeError object>"
p29
sS'__format__'
p30
S'<built-in method __format__ of exceptions.TypeError object>'
p31
sS'__getattribute__'
p32
S"<method-wrapper '__getattribute__' of exceptions.TypeError object>"
p33
sS'__class__'
p34
S"<type 'exceptions.TypeError'>"
p35
sS'__unicode__'
p36
S'<built-in method __unicode__ of exceptions.TypeError object>'
p37
sS'__delattr__'
p38
S"<method-wrapper '__delattr__' of exceptions.TypeError object>"
p39
sS'__subclasshook__'
p40
S'<built-in method __subclasshook__ of type object>'
p41
sS'__repr__'
p42
S"<method-wrapper '__repr__' of exceptions.TypeError object>"
p43
sS'__dict__'
p44
S'{}'
p45
sS'__sizeof__'
p46
S'<built-in method __sizeof__ of exceptions.TypeError object>'
p47
sS'__doc__'
p48
S"'Inappropriate argument type.'"
p49
sS'__init__'
p50
S"<method-wrapper '__init__' of exceptions.TypeError object>"
p51
sS'__new__'
p52
S'<built-in method __new__ of type object>'
p53
ssS'evalue'
p54
S'array([  1.34348282e-01,   1.46439549e-01,   1.58530795e-01,\n         1.70622020e-01,   1.82713220e-01,   1.94804396e-01,\n         2.06895544e-01,   2.18986664e-01,   2.31077753e-01,\n         2.43168810e-01,   2.55259833e-01,   2.67350821e-01,\n         2.79441772e-01,   2.91532684e-01,   3.03623555e-01,\n         3.15714384e-01,   3.27805170e-01,   3.39895910e-01,\n         3.51986603e-01,   3.64077247e-01,   3.76167840e-01,\n         3.88258381e-01,   4.00348869e-01,   4.12439300e-01,\n         4.24529675e-01,   4.36619990e-01,   4.48710245e-01,\n         4.60800438e-01,   4.72890566e-01,   4.84980629e-01,\n         4.97070625e-01,   5.09160552e-01,   5.21250408e-01,\n         5.33340191e-01,   5.45429901e-01,   5.57519535e-01,\n         5.69609091e-01,   5.81698569e-01,   5.93787966e-01,\n         6.05877280e-01,   6.17966510e-01,   6.30055654e-01,\n         6.42144711e-01,   6.54233679e-01,   6.66322556e-01,\n         6.78411341e-01,   6.90500031e-01,   7.02588626e-01,\n         7.14677123e-01,   7.26765520e-01,   7.38853817e-01,\n         7.50942012e-01,   7.63030102e-01,   7.75118086e-01,\n         7.87205963e-01,   7.99293731e-01,   8.11381387e-01,\n         8.23468931e-01,   8.35556361e-01,   8.47643675e-01,\n         8.59730871e-01,   8.71817947e-01,   8.83904903e-01,\n         8.95991736e-01,   9.08078445e-01,   9.20165028e-01,\n         9.32251483e-01,   9.44337809e-01,   9.56424004e-01,\n         9.68510066e-01,   9.80595993e-01,   9.92681785e-01,\n         1.00476744e+00,   1.01685295e+00,   1.02893833e+00,\n         1.04102356e+00,   1.05310864e+00,   1.06519358e+00,\n         1.07727838e+00,   1.08936302e+00,   1.10144751e+00,\n         1.11353185e+00,   1.12561603e+00,   1.13770006e+00,\n         1.14978393e+00,   1.16186764e+00,   1.17395119e+00,\n         1.18603458e+00,   1.19811780e+00,   1.21020086e+00,\n         1.22228375e+00,   1.23436647e+00,   1.24644901e+00,\n         1.25853139e+00,   1.27061359e+00,   1.28269561e+00,\n         1.29477746e+00,   1.30685913e+00,   1.31894061e+00,\n         1.33102191e+00,   1.46390369e+00,   1.58468406e+00,\n         1.70544246e+00,   1.82617722e+00,   1.94688669e+00,\n         2.06756920e+00,   2.18822309e+00,   2.30884669e+00,\n         2.42943834e+00,   2.54999640e+00,   2.67051921e+00,\n         2.79100512e+00,   2.91145248e+00,   3.03185965e+00,\n         3.15222498e+00,   3.27254683e+00,   3.39282357e+00,\n         3.51305356e+00,   3.63323518e+00,   3.75336680e+00,\n         3.87344679e+00,   3.99347354e+00,   4.11344543e+00,\n         4.23336085e+00,   4.35321820e+00,   4.47301586e+00,\n         4.59275224e+00,   4.71242575e+00,   4.83203479e+00,\n         4.95157778e+00,   5.07105314e+00,   5.19045928e+00,\n         5.30979465e+00,   5.42905767e+00,   5.54824678e+00,\n         5.66736043e+00,   5.78639706e+00,   5.90535512e+00,\n         6.02423309e+00,   6.14302941e+00,   6.26174256e+00,\n         6.38037103e+00,   6.49891328e+00,   6.61736782e+00,\n         6.73573312e+00,   6.85400770e+00,   6.97219006e+00,\n         7.09027871e+00,   7.20827217e+00,   7.32616897e+00,\n         7.44396763e+00,   7.56166671e+00,   7.67926473e+00,\n         7.79676026e+00,   7.91415186e+00,   8.03143808e+00,\n         8.14861751e+00,   8.26568872e+00,   8.38265030e+00,\n         8.49950084e+00,   8.61623895e+00,   8.73286324e+00,\n         8.84937232e+00,   8.96576481e+00,   9.08203936e+00,\n         9.19819459e+00,   9.31422916e+00,   9.43014172e+00,\n         9.54593093e+00,   9.66159547e+00,   9.77713402e+00,\n         9.89254525e+00,   1.00078279e+01,   1.01229806e+01,\n         1.02380021e+01,   1.03528911e+01,   1.04676464e+01,\n         1.05822667e+01,   1.06967507e+01,   1.08110972e+01,\n         1.09253050e+01,   1.10393727e+01,   1.11532993e+01,\n         1.12670835e+01,   1.13807240e+01,   1.14942198e+01,\n         1.16075695e+01,   1.17207721e+01,   1.18338263e+01,\n         1.19467311e+01,   1.20594852e+01,   1.21720875e+01,\n         1.22845370e+01,   1.23968323e+01,   1.25089726e+01,\n         1.26209566e+01,   1.27327832e+01,   1.28444514e+01,\n         1.29559601e+01,   1.41717303e+01,   1.52589921e+01,\n         1.63281841e+01,   1.73784927e+01,   1.84091998e+01,\n         1.94196818e+01,   2.04094076e+01,   2.13779351e+01,\n         2.23249081e+01,   2.32500524e+01,   2.41531709e+01,\n         2.50341392e+01,   2.58929005e+01,   2.67294607e+01,\n         2.75438832e+01,   2.83362836e+01,   2.91068252e+01,\n         2.98557138e+01,   3.05831933e+01,   3.12895410e+01,\n         3.19750635e+01,   3.26400930e+01,   3.32849829e+01,\n         3.39101054e+01,   3.45158473e+01,   3.51026077e+01,\n         3.56707952e+01,   3.62208253e+01,   3.67531186e+01,\n         3.72680985e+01,   3.77661894e+01,   3.82478155e+01,\n         3.87133991e+01,   3.91633597e+01,   3.95981124e+01,\n         4.00180676e+01,   4.04236300e+01,   4.08151977e+01,\n         4.11931619e+01,   4.15579065e+01,   4.19098074e+01,\n         4.22492325e+01,   4.25765414e+01,   4.28920852e+01,\n         4.31962063e+01,   4.34892385e+01,   4.37715069e+01,\n         4.40433278e+01,   4.43050091e+01,   4.45568499e+01,\n         4.47991409e+01,   4.50321646e+01,   4.52561949e+01,\n         4.54714980e+01,   4.56783320e+01,   4.58769473e+01,\n         4.60675866e+01,   4.62504854e+01,   4.64258718e+01,\n         4.65939670e+01,   4.67549852e+01,   4.69091341e+01,\n         4.70566150e+01,   4.71976226e+01,   4.73323459e+01,\n         4.74609676e+01,   4.75836651e+01,   4.77006100e+01,\n         4.78119684e+01,   4.79179014e+01,   4.80185652e+01,\n         4.81141108e+01,   4.82046846e+01,   4.82904286e+01,\n         4.83714801e+01,   4.84479725e+01,   4.85200348e+01,\n         4.85877921e+01,   4.86513657e+01,   4.87108730e+01,\n         4.87664281e+01,   4.88181414e+01,   4.88661201e+01,\n         4.89104679e+01,   4.89512857e+01,   4.89886711e+01,\n         4.90227190e+01,   4.90535214e+01,   4.90811673e+01,\n         4.91057435e+01,   4.91273340e+01,   4.91460204e+01,\n         4.91618817e+01,   4.91749951e+01,   4.91854350e+01,\n         4.91932740e+01,   4.91985826e+01,   4.92014291e+01,\n         4.92018801e+01,   4.90659731e+01,   4.87580132e+01,\n         4.83174772e+01,   4.77762038e+01,   4.71589585e+01,\n         4.64851755e+01,   4.57702168e+01,   4.50262946e+01,\n         4.42631573e+01,   4.34886078e+01,   4.27088978e+01,\n         4.19290344e+01,   4.11530185e+01,   4.03840344e+01,\n         3.96245999e+01,   3.88766873e+01,   3.81418220e+01,\n         3.74211616e+01,   3.67155616e+01,   3.60256294e+01,\n         3.53517680e+01,   3.46942133e+01,   3.40530647e+01,\n         3.34283098e+01,   3.28198462e+01,   3.22274988e+01,\n         3.16510345e+01,   3.10901749e+01,   3.05446056e+01,\n         3.00139857e+01,   2.94979541e+01,   2.89961361e+01,\n         2.85081477e+01,   2.80335996e+01,   2.75721011e+01,\n         2.71232620e+01,   2.66866956e+01,   2.62620199e+01,\n         2.58488589e+01,   2.54468445e+01,   2.50556163e+01,\n         2.46748234e+01,   2.43041236e+01,   2.39431849e+01,\n         2.35916849e+01,   2.32493113e+01,   2.29157619e+01,\n         2.25907442e+01,   2.22739759e+01,   2.19651841e+01,\n         2.16641057e+01,   2.13704867e+01,   2.10840825e+01,\n         2.08046569e+01,   2.05319829e+01,   2.02658412e+01,\n         2.00060212e+01,   1.97523195e+01,   1.95045408e+01,\n         1.92624965e+01,   1.90260055e+01,   1.87948932e+01,\n         1.85689915e+01,   1.83481386e+01,   1.81321786e+01,\n         1.79209615e+01,   1.77143428e+01,   1.75121833e+01,\n         1.73143489e+01,   1.71207104e+01,   1.69311434e+01,\n         1.67455279e+01,   1.65637483e+01,   1.63856932e+01,\n         1.62112551e+01,   1.60403304e+01,   1.58728192e+01,\n         1.57086250e+01,   1.55476550e+01,   1.53898192e+01,\n         1.52350311e+01,   1.50832070e+01,   1.49342662e+01,\n         1.47881306e+01,   1.46447249e+01,   1.45039764e+01,\n         1.43658146e+01,   1.42301715e+01,   1.40969815e+01,\n         1.39661809e+01,   1.38377083e+01,   1.37115042e+01,\n         1.35875110e+01,   1.34656731e+01,   1.33459365e+01,\n         1.32282492e+01,   1.31125604e+01,   1.29988214e+01,\n         1.28869846e+01,   1.17701436e+01,   1.09074894e+01,\n         1.01606563e+01,   9.50812861e+00,   8.93333387e+00,\n         8.42332038e+00,   7.96783126e+00,   7.55864565e+00,\n         7.18910206e+00,   6.85374843e+00,   6.54808166e+00,\n         6.26835112e+00,   6.01140876e+00,   5.77459344e+00,\n         5.55564080e+00,   5.35261229e+00,   5.16383889e+00,\n         4.98787602e+00,   4.82346719e+00,   4.66951445e+00,\n         4.52505426e+00,   4.38923754e+00,   4.26131330e+00,\n         4.14061482e+00,   4.02654826e+00,   3.91858294e+00,\n         3.81624321e+00,   3.71910149e+00,   3.62677238e+00,\n         3.53890758e+00,   3.45519155e+00,   3.37533774e+00,\n         3.29908537e+00,   3.22619656e+00,   3.15645390e+00,\n         3.08965831e+00,   3.02562711e+00,   2.96419241e+00,\n         2.90519963e+00,   2.84850619e+00,   2.79398040e+00,\n         2.74150040e+00,   2.69095333e+00,   2.64223444e+00,\n         2.59524640e+00,   2.54989869e+00,   2.50610697e+00,\n         2.46379258e+00,   2.42288207e+00,   2.38330678e+00,\n         2.34500244e+00,   2.30790886e+00,   2.27196956e+00,\n         2.23713153e+00,   2.20334496e+00,   2.17056299e+00,\n         2.13874150e+00,   2.10783892e+00,   2.07781604e+00,\n         2.04863584e+00,   2.02026337e+00,   1.99266555e+00,\n         1.96581113e+00,   1.93967046e+00,   1.91421549e+00,\n         1.88941961e+00,   1.86525755e+00,   1.84170533e+00,\n         1.81874016e+00,   1.79634038e+00,   1.77448538e+00,\n         1.75315551e+00,   1.73233210e+00,   1.71199733e+00,\n         1.69213419e+00,   1.67272649e+00,   1.65375873e+00,\n         1.63521613e+00,   1.61708457e+00,   1.59935053e+00,\n         1.58200109e+00,   1.56502387e+00,   1.54840702e+00,\n         1.53213920e+00,   1.51620953e+00,   1.50060758e+00,\n         1.48532333e+00,   1.47034719e+00,   1.45566994e+00,\n         1.44128272e+00,   1.42717702e+00,   1.41334465e+00,\n         1.39977777e+00,   1.38646878e+00,   1.37341042e+00,\n         1.36059568e+00,   1.34801779e+00,   1.33567026e+00,\n         1.32354681e+00,   1.20339261e+00,   1.11164582e+00,\n         1.03289538e+00,   9.64562856e-01,   9.04709461e-01,\n         8.51849352e-01,   8.04824651e-01,   7.62719702e-01,\n         7.24800884e-01,   6.90473521e-01,   6.59250473e-01,\n         6.30728885e-01,   6.04572715e-01,   5.80499432e-01,\n         5.58269776e-01,   5.37679778e-01,   5.18554488e-01,\n         5.00742986e-01,   4.84114400e-01,   4.68554680e-01,\n         4.53963978e-01,   4.40254511e-01,   4.27348785e-01,\n         4.15178132e-01,   4.03681493e-01,   3.92804387e-01,\n         3.82498050e-01,   3.72718706e-01,   3.63426943e-01,\n         3.54587185e-01,   3.46167232e-01,   3.38137874e-01,\n         3.30472548e-01,   3.23147046e-01,   3.16139262e-01,\n         3.09428965e-01,   3.02997605e-01,   2.96828144e-01,\n         2.90904904e-01,   2.85213435e-01,   2.79740393e-01,\n         2.74473441e-01,   2.69401154e-01,   2.64512936e-01,\n         2.59798946e-01,   2.55250032e-01,   2.50857672e-01,\n         2.46613922e-01,   2.42511364e-01,   2.38543068e-01,\n         2.34702550e-01,   2.30983735e-01,   2.27380928e-01,\n         2.23888786e-01,   2.20502285e-01,   2.17216704e-01,\n         2.14027599e-01,   2.10930780e-01,   2.07922300e-01,\n         2.04998432e-01,   2.02155656e-01,   1.99390644e-01,\n         1.96700249e-01,   1.94081490e-01,   1.91531544e-01,\n         1.89047734e-01,   1.86627519e-01,   1.84268489e-01,\n         1.81968352e-01,   1.79724929e-01,   1.77536150e-01,\n         1.75400041e-01,   1.73314723e-01,   1.71278407e-01,\n         1.69289386e-01,   1.67346030e-01,   1.65446785e-01,\n         1.63590166e-01,   1.61774754e-01,   1.59999192e-01,\n         1.58262182e-01,   1.56562482e-01,   1.54898903e-01,\n         1.53270305e-01,   1.51675597e-01,   1.50113731e-01,\n         1.48583704e-01,   1.47084552e-01,   1.45615348e-01,\n         1.44175206e-01,   1.42763271e-01,   1.41378722e-01,\n         1.40020771e-01,   1.38688657e-01,   1.37381652e-01,\n         1.36099050e-01,   1.34840176e-01,   1.33604377e-01,\n         1.32391024e-01,   1.20366576e-01,   1.11186112e-01,\n         1.03306809e-01,   9.64703500e-02,   9.04825512e-02,\n         8.51946224e-02,   8.04906348e-02,   7.62789235e-02,\n         7.24860553e-02,   6.90525106e-02,   6.59295372e-02,\n         6.30768205e-02,   6.04607342e-02,   5.80530085e-02,\n         5.58297040e-02,   5.37704136e-02,   5.18576337e-02,\n         5.00762661e-02,   4.84132179e-02,   4.68570799e-02,\n         4.53978638e-02,   4.40267882e-02,   4.27361014e-02,\n         4.15189346e-02,   4.03691801e-02,   3.92813884e-02,\n         3.82506819e-02,   3.72726819e-02,   3.63434465e-02,\n         3.54594171e-02,   3.46173732e-02,   3.38143932e-02,\n         3.30478203e-02,   3.23152334e-02,   3.16144213e-02,\n         3.09433607e-02,   3.03001963e-02,   2.96832242e-02,\n         2.90908762e-02,   2.85217070e-02,   2.79743823e-02,\n         2.74476681e-02,   2.69404218e-02,   2.64515836e-02,\n         2.59801693e-02,   2.55252637e-02,   2.50860146e-02,\n         2.46616272e-02,   2.42513599e-02,   2.38545195e-02,\n         2.34704576e-02,   2.30985666e-02,   2.27382770e-02,\n         2.23890544e-02,   2.20503965e-02,   2.17218310e-02,\n         2.14029135e-02,   2.10932251e-02,   2.07923709e-02,\n         2.04999782e-02,   2.02156950e-02,   1.99391886e-02,\n         1.96701441e-02,   1.94082635e-02,   1.91532645e-02,\n         1.89048792e-02,   1.86628538e-02,   1.84269469e-02,\n         1.81969296e-02,   1.79725839e-02,   1.77537027e-02,\n         1.75400886e-02,   1.73315539e-02,   1.71279195e-02,\n         1.69290146e-02,   1.67346765e-02,   1.65447495e-02,\n         1.63590852e-02,   1.61775418e-02,   1.59999834e-02,\n         1.58262803e-02,   1.56563084e-02,   1.54899486e-02,\n         1.53270870e-02,   1.51676144e-02,   1.50114261e-02,\n         1.48584218e-02,   1.47085050e-02,   1.45615832e-02,\n         1.44175676e-02,   1.42763727e-02,   1.41379165e-02,\n         1.40021201e-02,   1.38689075e-02,   1.37382058e-02,\n         1.36099445e-02,   1.34840561e-02,   1.33604751e-02,\n         1.32391388e-02]) is not JSON serializable'
p55
sS'request'
p56
cgluon.html
XML_unpickle
p57
(S's\nj\x00\x00<div><table><tr><td style="font-weight:bold;vertical-align:top;">ajax</td><td style="vertical-align:top;">:</td><td><div>True</div></td></tr><tr><td style="font-weight:bold;vertical-align:top;">application</td><td style="vertical-align:top;">:</td><td><div>webcad_blog</div></td></tr><tr><td style="font-weight:bold;vertical-align:top;">args</td><td style="vertical-align:top;">:</td><td><div><table></table></div></td></tr><tr><td style="font-weight:bold;vertical-align:top;">cid</td><td style="vertical-align:top;">:</td><td><div>None</div></td></tr><tr><td style="font-weight:bold;vertical-align:top;">client</td><td style="vertical-align:top;">:</td><td><div>127.0.0.1</div></td></tr><tr><td style="font-weight:bold;vertical-align:top;">controller</td><td style="vertical-align:top;">:</td><td><div>pll_calcs</div></td></tr><tr><td style="font-weight:bold;vertical-align:top;">cookies</td><td style="vertical-align:top;">:</td><td><div><table><tr><td style="font-weight:bold;vertical-align:top;">session_id_admin</td><td style="vertical-align:top;">:</td><td><div>127.0.0.1-f25f7aa0-3048-49f1-a82f-55d2ab55e1cf<table><tr><td style="font-weight:bold;vertical-align:top;">comment</td><td style="vertical-align:top;">:</td><td><div></div></td></tr><tr><td style="font-weight:bold;vertical-align:top;">domain</td><td style="vertical-align:top;">:</td><td><div></div></td></tr><tr><td style="font-weight:bold;vertical-align:top;">expires</td><td style="vertical-align:top;">:</td><td><div></div></td></tr><tr><td style="font-weight:bold;vertical-align:top;">httponly</td><td style="vertical-align:top;">:</td><td><div></div></td></tr><tr><td style="font-weight:bold;vertical-align:top;">max-age</td><td style="vertical-align:top;">:</td><td><div></div></td></tr><tr><td style="font-weight:bold;vertical-align:top;">path</td><td style="vertical-align:top;">:</td><td><div></div></td></tr><tr><td style="font-weight:bold;vertical-align:top;">secure</td><td style="vertical-align:top;">:</td><td><div></div></td></tr><tr><td style="font-weight:bold;vertical-align:top;">version</td><td style="vertical-align:top;">:</td><td><div></div></td></tr></table></div></td></tr><tr><td style="font-weight:bold;vertical-align:top;">session_id_myapp</td><td style="vertical-align:top;">:</td><td><div>127.0.0.1-ed658642-b403-487a-92c1-e01bef6eec54<table><tr><td style="font-weight:bold;vertical-align:top;">comment</td><td style="vertical-align:top;">:</td><td><div></div></td></tr><tr><td style="font-weight:bold;vertical-align:top;">domain</td><td style="vertical-align:top;">:</td><td><div></div></td></tr><tr><td style="font-weight:bold;vertical-align:top;">expires</td><td style="vertical-align:top;">:</td><td><div></div></td></tr><tr><td style="font-weight:bold;vertical-align:top;">httponly</td><td style="vertical-align:top;">:</td><td><div></div></td></tr><tr><td style="font-weight:bold;vertical-align:top;">max-age</td><td style="vertical-align:top;">:</td><td><div></div></td></tr><tr><td style="font-weight:bold;vertical-align:top;">path</td><td style="vertical-align:top;">:</td><td><div></div></td></tr><tr><td style="font-weight:bold;vertical-align:top;">secure</td><td style="vertical-align:top;">:</td><td><div></div></td></tr><tr><td style="font-weight:bold;vertical-align:top;">version</td><td style="vertical-align:top;">:</td><td><div></div></td></tr></table></div></td></tr><tr><td style="font-weight:bold;vertical-align:top;">session_id_pll_designer</td><td style="vertical-align:top;">:</td><td><div>127.0.0.1-de8feb66-0459-407d-86d3-db9c46208f19<table><tr><td style="font-weight:bold;vertical-align:top;">comment</td><td style="vertical-align:top;">:</td><td><div></div></td></tr><tr><td style="font-weight:bold;vertical-align:top;">domain</td><td style="vertical-align:top;">:</td><td><div></div></td></tr><tr><td style="font-weight:bold;vertical-align:top;">expires</td><td style="vertical-align:top;">:</td><td><div></div></td></tr><tr><td style="font-weight:bold;vertical-align:top;">httponly</td><td style="vertical-align:top;">:</td><td><div></div></td></tr><tr><td style="font-weight:bold;vertical-align:top;">max-age</td><td style="vertical-align:top;">:</td><td><div></div></td></tr><tr><td style="font-weight:bold;vertical-align:top;">path</td><td style="vertical-align:top;">:</td><td><div></div></td></tr><tr><td style="font-weight:bold;vertical-align:top;">secure</td><td style="vertical-align:top;">:</td><td><div></div></td></tr><tr><td style="font-weight:bold;vertical-align:top;">version</td><td style="vertical-align:top;">:</td><td><div></div></td></tr></table></div></td></tr><tr><td style="font-weight:bold;vertical-align:top;">session_id_webcad_blog</td><td style="vertical-align:top;">:</td><td><div>127.0.0.1-981aaa4a-2873-4a94-ba03-23bf9df7604a<table><tr><td style="font-weight:bold;vertical-align:top;">comment</td><td style="vertical-align:top;">:</td><td><div></div></td></tr><tr><td style="font-weight:bold;vertical-align:top;">domain</td><td style="vertical-align:top;">:</td><td><div></div></td></tr><tr><td style="font-weight:bold;vertical-align:top;">expires</td><td style="vertical-align:top;">:</td><td><div></div></td></tr><tr><td style="font-weight:bold;vertical-align:top;">httponly</td><td style="vertical-align:top;">:</td><td><div></div></td></tr><tr><td style="font-weight:bold;vertical-align:top;">max-age</td><td style="vertical-align:top;">:</td><td><div></div></td></tr><tr><td style="font-weight:bold;vertical-align:top;">path</td><td style="vertical-align:top;">:</td><td><div></div></td></tr><tr><td style="font-weight:bold;vertical-align:top;">secure</td><td style="vertical-align:top;">:</td><td><div></div></td></tr><tr><td style="font-weight:bold;vertical-align:top;">version</td><td style="vertical-align:top;">:</td><td><div></div></td></tr></table></div></td></tr><tr><td style="font-weight:bold;vertical-align:top;">session_id_welcome</td><td style="vertical-align:top;">:</td><td><div>127.0.0.1-dceb2be8-b93a-43ca-931f-187d3bded016<table><tr><td style="font-weight:bold;vertical-align:top;">comment</td><td style="vertical-align:top;">:</td><td><div></div></td></tr><tr><td style="font-weight:bold;vertical-align:top;">domain</td><td style="vertical-align:top;">:</td><td><div></div></td></tr><tr><td style="font-weight:bold;vertical-align:top;">expires</td><td style="vertical-align:top;">:</td><td><div></div></td></tr><tr><td style="font-weight:bold;vertical-align:top;">httponly</td><td style="vertical-align:top;">:</td><td><div></div></td></tr><tr><td style="font-weight:bold;vertical-align:top;">max-age</td><td style="vertical-align:top;">:</td><td><div></div></td></tr><tr><td style="font-weight:bold;vertical-align:top;">path</td><td style="vertical-align:top;">:</td><td><div></div></td></tr><tr><td style="font-weight:bold;vertical-align:top;">secure</td><td style="vertical-align:top;">:</td><td><div></div></td></tr><tr><td style="font-weight:bold;vertical-align:top;">version</td><td style="vertical-align:top;">:</td><td><div></div></td></tr></table></div></td></tr></table></div></td></tr><tr><td style="font-weight:bold;vertical-align:top;">env</td><td style="vertical-align:top;">:</td><td><div><table><tr><td style="font-weight:bold;vertical-align:top;">HTTP_ACCEPT</td><td style="vertical-align:top;">:</td><td><div>*/*</div></td></tr><tr><td style="font-weight:bold;vertical-align:top;">HTTP_ACCEPT_ENCODING</td><td style="vertical-align:top;">:</td><td><div>gzip, deflate, sdch, br</div></td></tr><tr><td style="font-weight:bold;vertical-align:top;">HTTP_ACCEPT_LANGUAGE</td><td style="vertical-align:top;">:</td><td><div>en-US,en;q=0.8</div></td></tr><tr><td style="font-weight:bold;vertical-align:top;">HTTP_CONNECTION</td><td style="vertical-align:top;">:</td><td><div>keep-alive</div></td></tr><tr><td style="font-weight:bold;vertical-align:top;">HTTP_COOKIE</td><td style="vertical-align:top;">:</td><td><div>session_id_pll_designer=127.0.0.1-de8feb66-0459-407d-86d3-db9c46208f19; session_id_myapp=127.0.0.1-ed658642-b403-487a-92c1-e01bef6eec54; session_id_admin=127.0.0.1-f25f7aa0-3048-49f1-a82f-55d2ab55e1cf; session_id_welcome=127.0.0.1-dceb2be8-b93a-43ca-931f-187d3bded016; session_id_webcad_blog=127.0.0.1-981aaa4a-2873-4a94-ba03-23bf9df7604a</div></td></tr><tr><td style="font-weight:bold;vertical-align:top;">HTTP_DNT</td><td style="vertical-align:top;">:</td><td><div>1</div></td></tr><tr><td style="font-weight:bold;vertical-align:top;">HTTP_HOST</td><td style="vertical-align:top;">:</td><td><div>127.0.0.1:8000</div></td></tr><tr><td style="font-weight:bold;vertical-align:top;">HTTP_REFERER</td><td style="vertical-align:top;">:</td><td><div>http://127.0.0.1:8000/webcad_blog/default/pll_designer</div></td></tr><tr><td style="font-weight:bold;vertical-align:top;">HTTP_USER_AGENT</td><td style="vertical-align:top;">:</td><td><div>Mozilla/5.0 (X11; Linux x86_64) AppleWebKit/537.36 (KHTML, like Gecko) Chrome/54.0.2840.100 Safari/537.36</div></td></tr><tr><td style="font-weight:bold;vertical-align:top;">HTTP_X_REQUESTED_WITH</td><td style="vertical-align:top;">:</td><td><div>XMLHttpRequest</div></td></tr><tr><td style="font-weight:bold;vertical-align:top;">PATH_INFO</td><td style="vertical-align:top;">:</td><td><div>/webcad_blog/pll_calcs/callSimulatePllOpenLoop.json</div></td></tr><tr><td style="font-weight:bold;vertical-align:top;">QUERY_STRING</td><td style="vertical-align:top;">:</td><td><div>fstart=10&amp;fstop=100000000&amp;ptsPerDec=100&amp;kphi=0.001&amp;kvco=60000000&amp;N=39200&amp;flt_type=passive&amp;c1=1.454799571970489e-10&amp;c2=9.06493599008521e-10&amp;r2=47775.60521685732&amp;c3=0&amp;c4=0&amp;r3=0&amp;r4=0&amp;{}</div></td></tr><tr><td style="font-weight:bold;vertical-align:top;">REMOTE_ADDR</td><td style="vertical-align:top;">:</td><td><div>127.0.0.1</div></td></tr><tr><td style="font-weight:bold;vertical-align:top;">REMOTE_PORT</td><td style="vertical-align:top;">:</td><td><div>38962</div></td></tr><tr><td style="font-weight:bold;vertical-align:top;">REQUEST_METHOD</td><td style="vertical-align:top;">:</td><td><div>GET</div></td></tr><tr><td style="font-weight:bold;vertical-align:top;">SCRIPT_NAME</td><td style="vertical-align:top;">:</td><td><div></div></td></tr><tr><td style="font-weight:bold;vertical-align:top;">SERVER_NAME</td><td style="vertical-align:top;">:</td><td><div>bsmith-Satellite-P775D</div></td></tr><tr><td style="font-weight:bold;vertical-align:top;">SERVER_PORT</td><td style="vertical-align:top;">:</td><td><div>8000</div></td></tr><tr><td style="font-weight:bold;vertical-align:top;">SERVER_PROTOCOL</td><td style="vertical-align:top;">:</td><td><div>HTTP/1.1</div></td></tr><tr><td style="font-weight:bold;vertical-align:top;">SERVER_SOFTWARE</td><td style="vertical-align:top;">:</td><td><div>Rocket 1.2.6</div></td></tr><tr><td style="font-weight:bold;vertical-align:top;">app_folders</td><td style="vertical-align:top;">:</td><td><div>set([&#x27;/home/bsmith/git/webcad/web2py/applications/welcome/&#x27;, &#x27;/home/bsmith/git/webcad/web2py/applications/webcad_blog/&#x27;])</div></td></tr><tr><td style="font-weight:bold;vertical-align:top;">applications_parent</td><td style="vertical-align:top;">:</td><td><div>/home/bsmith/git/webcad/web2py</div></td></tr><tr><td style="font-weight:bold;vertical-align:top;">cmd_args</td><td style="vertical-align:top;">:</td><td><div><table></table></div></td></tr><tr><td style="font-weight:bold;vertical-align:top;">cmd_options</td><td style="vertical-align:top;">:</td><td><div>&lt;Values at 0x7f1f220314d0: {&#x27;verbose&#x27;: False, &#x27;ip&#x27;: &#x27;127.0.0.1&#x27;, &#x27;debuglevel&#x27;: 30, &#x27;with_scheduler&#x27;: False, &#x27;shutdown_timeout&#x27;: 5, &#x27;taskbar&#x27;: False, &#x27;with_coverage&#x27;: False, &#x27;pid_filename&#x27;: &#x27;httpserver.pid&#x27;, &#x27;maxthreads&#x27;: None, &#x27;softcron&#x27;: False, &#x27;server_name&#x27;: &#x27;bsmith-Satellite-P775D&#x27;, &#x27;bpython&#x27;: False, &#x27;nogui&#x27;: False, &#x27;port&#x27;: 8000, &#x27;print_errors&#x27;: False, &#x27;extcron&#x27;: False, &#x27;runcron&#x27;: False, &#x27;run_system_tests&#x27;: False, &#x27;test&#x27;: None, &#x27;folder&#x27;: &#x27;/home/bsmith/git/webcad/web2py&#x27;, &#x27;config&#x27;: &#x27;&#x27;, &#x27;minthreads&#x27;: None, &#x27;shell&#x27;: None, &#x27;run&#x27;: &#x27;&#x27;, &#x27;log_filename&#x27;: &#x27;httpserver.log&#x27;, &#x27;profiler_dir&#x27;: None, &#x27;args&#x27;: [&#x27;&#x27;], &#x27;socket_timeout&#x27;: 5, &#x27;ssl_ca_certificate&#x27;: None, &#x27;scheduler&#x27;: None, &#x27;interfaces&#x27;: None, &#x27;ssl_private_key&#x27;: &#x27;&#x27;, &#x27;gae&#x27;: None, &#x27;password&#x27;: &#x27;******&#x27;, &#x27;request_queue_size&#x27;: 5, &#x27;ssl_certificate&#x27;: &#x27;&#x27;, &#x27;cronjob&#x27;: False, &#x27;numthreads&#x27;: None, &#x27;quiet&#x27;: False, &#x27;import_models&#x27;: False, &#x27;timeout&#x27;: 10, &#x27;plain&#x27;: False, &#x27;nobanner&#x27;: False}&gt;</div></td></tr><tr><td style="font-weight:bold;vertical-align:top;">db_sessions</td><td style="vertical-align:top;">:</td><td><div>set([])</div></td></tr><tr><td style="font-weight:bold;vertical-align:top;">debugging</td><td style="vertical-align:top;">:</td><td><div>False</div></td></tr><tr><td style="font-weight:bold;vertical-align:top;">gluon_parent</td><td style="vertical-align:top;">:</td><td><div>/home/bsmith/git/webcad/web2py</div></td></tr><tr><td style="font-weight:bold;vertical-align:top;">http_accept</td><td style="vertical-align:top;">:</td><td><div>*/*</div></td></tr><tr><td style="font-weight:bold;vertical-align:top;">http_accept_encoding</td><td style="vertical-align:top;">:</td><td><div>gzip, deflate, sdch, br</div></td></tr><tr><td style="font-weight:bold;vertical-align:top;">http_accept_language</td><td style="vertical-align:top;">:</td><td><div>en-US,en;q=0.8</div></td></tr><tr><td style="font-weight:bold;vertical-align:top;">http_connection</td><td style="vertical-align:top;">:</td><td><div>keep-alive</div></td></tr><tr><td style="font-weight:bold;vertical-align:top;">http_cookie</td><td style="vertical-align:top;">:</td><td><div>session_id_pll_designer=127.0.0.1-de8feb66-0459-407d-86d3-db9c46208f19; session_id_myapp=127.0.0.1-ed658642-b403-487a-92c1-e01bef6eec54; session_id_admin=127.0.0.1-f25f7aa0-3048-49f1-a82f-55d2ab55e1cf; session_id_welcome=127.0.0.1-dceb2be8-b93a-43ca-931f-187d3bded016; session_id_webcad_blog=127.0.0.1-981aaa4a-2873-4a94-ba03-23bf9df7604a</div></td></tr><tr><td style="font-weight:bold;vertical-align:top;">http_dnt</td><td style="vertical-align:top;">:</td><td><div>1</div></td></tr><tr><td style="font-weight:bold;vertical-align:top;">http_host</td><td style="vertical-align:top;">:</td><td><div>127.0.0.1:8000</div></td></tr><tr><td style="font-weight:bold;vertical-align:top;">http_referer</td><td style="vertical-align:top;">:</td><td><div>http://127.0.0.1:8000/webcad_blog/default/pll_designer</div></td></tr><tr><td style="font-weight:bold;vertical-align:top;">http_user_agent</td><td style="vertical-align:top;">:</td><td><div>Mozilla/5.0 (X11; Linux x86_64) AppleWebKit/537.36 (KHTML, like Gecko) Chrome/54.0.2840.100 Safari/537.36</div></td></tr><tr><td style="font-weight:bold;vertical-align:top;">http_x_requested_with</td><td style="vertical-align:top;">:</td><td><div>XMLHttpRequest</div></td></tr><tr><td style="font-weight:bold;vertical-align:top;">is_jython</td><td style="vertical-align:top;">:</td><td><div>False</div></td></tr><tr><td style="font-weight:bold;vertical-align:top;">is_pypy</td><td style="vertical-align:top;">:</td><td><div>False</div></td></tr><tr><td style="font-weight:bold;vertical-align:top;">is_source</td><td style="vertical-align:top;">:</td><td><div>True</div></td></tr><tr><td style="font-weight:bold;vertical-align:top;">local_hosts</td><td style="vertical-align:top;">:</td><td><div><table><tr><td><div>127.0.1.1</div></td></tr><tr><td><div>::1</div></td></tr><tr><td><div>bsmith-Satellite-P775D</div></td></tr><tr><td><div>::ffff:127.0.0.1</div></td></tr><tr><td><div>127.0.0.1</div></td></tr></table></div></td></tr><tr><td style="font-weight:bold;vertical-align:top;">path_info</td><td style="vertical-align:top;">:</td><td><div>/webcad_blog/pll_calcs/callSimulatePllOpenLoop.json</div></td></tr><tr><td style="font-weight:bold;vertical-align:top;">query_string</td><td style="vertical-align:top;">:</td><td><div>fstart=10&amp;fstop=100000000&amp;ptsPerDec=100&amp;kphi=0.001&amp;kvco=60000000&amp;N=39200&amp;flt_type=passive&amp;c1=1.454799571970489e-10&amp;c2=9.06493599008521e-10&amp;r2=47775.60521685732&amp;c3=0&amp;c4=0&amp;r3=0&amp;r4=0&amp;{}</div></td></tr><tr><td style="font-weight:bold;vertical-align:top;">remote_addr</td><td style="vertical-align:top;">:</td><td><div>127.0.0.1</div></td></tr><tr><td style="font-weight:bold;vertical-align:top;">remote_port</td><td style="vertical-align:top;">:</td><td><div>38962</div></td></tr><tr><td style="font-weight:bold;vertical-align:top;">request_method</td><td style="vertical-align:top;">:</td><td><div>GET</div></td></tr><tr><td style="font-weight:bold;vertical-align:top;">request_uri</td><td style="vertical-align:top;">:</td><td><div>/webcad_blog/pll_calcs/callSimulatePllOpenLoop.json?fstart=10&amp;fstop=100000000&amp;ptsPerDec=100&amp;kphi=0.001&amp;kvco=60000000&amp;N=39200&amp;flt_type=passive&amp;c1=1.454799571970489e-10&amp;c2=9.06493599008521e-10&amp;r2=47775.60521685732&amp;c3=0&amp;c4=0&amp;r3=0&amp;r4=0&amp;{}</div></td></tr><tr><td style="font-weight:bold;vertical-align:top;">script_name</td><td style="vertical-align:top;">:</td><td><div></div></td></tr><tr><td style="font-weight:bold;vertical-align:top;">server_name</td><td style="vertical-align:top;">:</td><td><div>bsmith-Satellite-P775D</div></td></tr><tr><td style="font-weight:bold;vertical-align:top;">server_port</td><td style="vertical-align:top;">:</td><td><div>8000</div></td></tr><tr><td style="font-weight:bold;vertical-align:top;">server_protocol</td><td style="vertical-align:top;">:</td><td><div>HTTP/1.1</div></td></tr><tr><td style="font-weight:bold;vertical-align:top;">server_software</td><td style="vertical-align:top;">:</td><td><div>Rocket 1.2.6</div></td></tr><tr><td style="font-weight:bold;vertical-align:top;">web2py_path</td><td style="vertical-align:top;">:</td><td><div>/home/bsmith/git/webcad/web2py</div></td></tr><tr><td style="font-weight:bold;vertical-align:top;">web2py_version</td><td style="vertical-align:top;">:</td><td><div>2.14.6-stable+timestamp.2016.05.10.00.21.47</div></td></tr><tr><td style="font-weight:bold;vertical-align:top;">wsgi.errors</td><td style="vertical-align:top;">:</td><td><div>&lt;open file &#x27;&lt;stderr&gt;&#x27;, mode &#x27;w&#x27; at 0x7f1f2866a1e0&gt;</div></td></tr><tr><td style="font-weight:bold;vertical-align:top;">wsgi.file_wrapper</td><td style="vertical-align:top;">:</td><td><div>&lt;class wsgiref.util.FileWrapper at 0x7f1f220d1a10&gt;</div></td></tr><tr><td style="font-weight:bold;vertical-align:top;">wsgi.input</td><td style="vertical-align:top;">:</td><td><div>&lt;socket._fileobject object at 0x7f1ee2abfb50&gt;</div></td></tr><tr><td style="font-weight:bold;vertical-align:top;">wsgi.multiprocess</td><td style="vertical-align:top;">:</td><td><div>False</div></td></tr><tr><td style="font-weight:bold;vertical-align:top;">wsgi.multithread</td><td style="vertical-align:top;">:</td><td><div>True</div></td></tr><tr><td style="font-weight:bold;vertical-align:top;">wsgi.run_once</td><td style="vertical-align:top;">:</td><td><div>False</div></td></tr><tr><td style="font-weight:bold;vertical-align:top;">wsgi.url_scheme</td><td style="vertical-align:top;">:</td><td><div>http</div></td></tr><tr><td style="font-weight:bold;vertical-align:top;">wsgi.version</td><td style="vertical-align:top;">:</td><td><div><table><tr><td><div>1</div></td></tr><tr><td><div>0</div></td></tr></table></div></td></tr><tr><td style="font-weight:bold;vertical-align:top;">wsgi_errors</td><td style="vertical-align:top;">:</td><td><div>&lt;open file &#x27;&lt;stderr&gt;&#x27;, mode &#x27;w&#x27; at 0x7f1f2866a1e0&gt;</div></td></tr><tr><td style="font-weight:bold;vertical-align:top;">wsgi_file_wrapper</td><td style="vertical-align:top;">:</td><td><div>&lt;class wsgiref.util.FileWrapper at 0x7f1f220d1a10&gt;</div></td></tr><tr><td style="font-weight:bold;vertical-align:top;">wsgi_input</td><td style="vertical-align:top;">:</td><td><div>&lt;socket._fileobject object at 0x7f1ee2abfb50&gt;</div></td></tr><tr><td style="font-weight:bold;vertical-align:top;">wsgi_multiprocess</td><td style="vertical-align:top;">:</td><td><div>False</div></td></tr><tr><td style="font-weight:bold;vertical-align:top;">wsgi_multithread</td><td style="vertical-align:top;">:</td><td><div>True</div></td></tr><tr><td style="font-weight:bold;vertical-align:top;">wsgi_run_once</td><td style="vertical-align:top;">:</td><td><div>False</div></td></tr><tr><td style="font-weight:bold;vertical-align:top;">wsgi_url_scheme</td><td style="vertical-align:top;">:</td><td><div>http</div></td></tr><tr><td style="font-weight:bold;vertical-align:top;">wsgi_version</td><td style="vertical-align:top;">:</td><td><div><table><tr><td><div>1</div></td></tr><tr><td><div>0</div></td></tr></table></div></td></tr></table></div></td></tr><tr><td style="font-weight:bold;vertical-align:top;">extension</td><td style="vertical-align:top;">:</td><td><div>json</div></td></tr><tr><td style="font-weight:bold;vertical-align:top;">folder</td><td style="vertical-align:top;">:</td><td><div>/home/bsmith/git/webcad/web2py/applications/webcad_blog/</div></td></tr><tr><td style="font-weight:bold;vertical-align:top;">function</td><td style="vertical-align:top;">:</td><td><div>callSimulatePllOpenLoop</div></td></tr><tr><td style="font-weight:bold;vertical-align:top;">global_settings</td><td style="vertical-align:top;">:</td><td><div><table><tr><td style="font-weight:bold;vertical-align:top;">app_folders</td><td style="vertical-align:top;">:</td><td><div>set([&#x27;/home/bsmith/git/webcad/web2py/applications/welcome/&#x27;, &#x27;/home/bsmith/git/webcad/web2py/applications/webcad_blog/&#x27;])</div></td></tr><tr><td style="font-weight:bold;vertical-align:top;">applications_parent</td><td style="vertical-align:top;">:</td><td><div>/home/bsmith/git/webcad/web2py</div></td></tr><tr><td style="font-weight:bold;vertical-align:top;">cmd_args</td><td style="vertical-align:top;">:</td><td><div><table></table></div></td></tr><tr><td style="font-weight:bold;vertical-align:top;">cmd_options</td><td style="vertical-align:top;">:</td><td><div>&lt;Values at 0x7f1f220314d0: {&#x27;verbose&#x27;: False, &#x27;ip&#x27;: &#x27;127.0.0.1&#x27;, &#x27;debuglevel&#x27;: 30, &#x27;with_scheduler&#x27;: False, &#x27;shutdown_timeout&#x27;: 5, &#x27;taskbar&#x27;: False, &#x27;with_coverage&#x27;: False, &#x27;pid_filename&#x27;: &#x27;httpserver.pid&#x27;, &#x27;maxthreads&#x27;: None, &#x27;softcron&#x27;: False, &#x27;server_name&#x27;: &#x27;bsmith-Satellite-P775D&#x27;, &#x27;bpython&#x27;: False, &#x27;nogui&#x27;: False, &#x27;port&#x27;: 8000, &#x27;print_errors&#x27;: False, &#x27;extcron&#x27;: False, &#x27;runcron&#x27;: False, &#x27;run_system_tests&#x27;: False, &#x27;test&#x27;: None, &#x27;folder&#x27;: &#x27;/home/bsmith/git/webcad/web2py&#x27;, &#x27;config&#x27;: &#x27;&#x27;, &#x27;minthreads&#x27;: None, &#x27;shell&#x27;: None, &#x27;run&#x27;: &#x27;&#x27;, &#x27;log_filename&#x27;: &#x27;httpserver.log&#x27;, &#x27;profiler_dir&#x27;: None, &#x27;args&#x27;: [&#x27;&#x27;], &#x27;socket_timeout&#x27;: 5, &#x27;ssl_ca_certificate&#x27;: None, &#x27;scheduler&#x27;: None, &#x27;interfaces&#x27;: None, &#x27;ssl_private_key&#x27;: &#x27;&#x27;, &#x27;gae&#x27;: None, &#x27;password&#x27;: &#x27;******&#x27;, &#x27;request_queue_size&#x27;: 5, &#x27;ssl_certificate&#x27;: &#x27;&#x27;, &#x27;cronjob&#x27;: False, &#x27;numthreads&#x27;: None, &#x27;quiet&#x27;: False, &#x27;import_models&#x27;: False, &#x27;timeout&#x27;: 10, &#x27;plain&#x27;: False, &#x27;nobanner&#x27;: False}&gt;</div></td></tr><tr><td style="font-weight:bold;vertical-align:top;">db_sessions</td><td style="vertical-align:top;">:</td><td><div>set([])</div></td></tr><tr><td style="font-weight:bold;vertical-align:top;">debugging</td><td style="vertical-align:top;">:</td><td><div>False</div></td></tr><tr><td style="font-weight:bold;vertical-align:top;">gluon_parent</td><td style="vertical-align:top;">:</td><td><div>/home/bsmith/git/webcad/web2py</div></td></tr><tr><td style="font-weight:bold;vertical-align:top;">is_jython</td><td style="vertical-align:top;">:</td><td><div>False</div></td></tr><tr><td style="font-weight:bold;vertical-align:top;">is_pypy</td><td style="vertical-align:top;">:</td><td><div>False</div></td></tr><tr><td style="font-weight:bold;vertical-align:top;">is_source</td><td style="vertical-align:top;">:</td><td><div>True</div></td></tr><tr><td style="font-weight:bold;vertical-align:top;">local_hosts</td><td style="vertical-align:top;">:</td><td><div><table><tr><td><div>127.0.1.1</div></td></tr><tr><td><div>::1</div></td></tr><tr><td><div>bsmith-Satellite-P775D</div></td></tr><tr><td><div>::ffff:127.0.0.1</div></td></tr><tr><td><div>127.0.0.1</div></td></tr></table></div></td></tr><tr><td style="font-weight:bold;vertical-align:top;">web2py_version</td><td style="vertical-align:top;">:</td><td><div>2.14.6-stable+timestamp.2016.05.10.00.21.47</div></td></tr></table></div></td></tr><tr><td style="font-weight:bold;vertical-align:top;">is_https</td><td style="vertical-align:top;">:</td><td><div>False</div></td></tr><tr><td style="font-weight:bold;vertical-align:top;">is_local</td><td style="vertical-align:top;">:</td><td><div>True</div></td></tr><tr><td style="font-weight:bold;vertical-align:top;">is_restful</td><td style="vertical-align:top;">:</td><td><div>False</div></td></tr><tr><td style="font-weight:bold;vertical-align:top;">is_scheduler</td><td style="vertical-align:top;">:</td><td><div>False</div></td></tr><tr><td style="font-weight:bold;vertical-align:top;">is_shell</td><td style="vertical-align:top;">:</td><td><div>False</div></td></tr><tr><td style="font-weight:bold;vertical-align:top;">now</td><td style="vertical-align:top;">:</td><td><div>datetime.datetime(2016, 11, 29, 2, 51, 17, 21854)</div></td></tr><tr><td style="font-weight:bold;vertical-align:top;">raw_args</td><td style="vertical-align:top;">:</td><td><div></div></td></tr><tr><td style="font-weight:bold;vertical-align:top;">raw_extension</td><td style="vertical-align:top;">:</td><td><div>json</div></td></tr><tr><td style="font-weight:bold;vertical-align:top;">url</td><td style="vertical-align:top;">:</td><td><div>/webcad_blog/pll_calcs/callSimulatePllOpenLoop.json</div></td></tr><tr><td style="font-weight:bold;vertical-align:top;">utcnow</td><td style="vertical-align:top;">:</td><td><div>datetime.datetime(2016, 11, 29, 8, 51, 17, 21888)</div></td></tr><tr><td style="font-weight:bold;vertical-align:top;">wsgi</td><td style="vertical-align:top;">:</td><td><div>&lt;gluon.main.LazyWSGI object at 0x7f1ee2cbc350&gt;</div></td></tr></table></div>'
tRp58
sS'frames'
p59
(lp60
(dp61
S'file'
p62
S'/home/bsmith/git/webcad/web2py/gluon/restricted.py'
p63
sS'dump'
p64
(dp65
S'environment'
p66
S"{'A': <class 'gluon.html.A'>, 'ANY_OF': <class 'gluon.validators.ANY_OF'>, 'ASSIGNJS': <function ASSIGNJS>, 'AppConfig': <function AppConfig>, 'Auth': <class 'gluon.tools.Auth'>, 'B': <class 'gluon.html.B'>, 'BEAUTIFY': <class 'gluon.html.BEAUTIFY'>, 'BODY': <class 'gluon.html.BODY'>, 'BR': <class 'gluon.html.BR'>, 'BUTTON': <class 'gluon.html.BUTTON'>, ...}"
p67
sS'ccode'
p68
S'<code object <module> at 0x7f1ee2e618b0, file "/...ications/webcad_blog/views/generic.json", line 1>'
p69
ssS'lnum'
p70
I227
sS'lines'
p71
(dp72
I224
S'            ccode = code'
p73
sI225
S'        else:'
p74
sI226
S'            ccode = compile2(code, layer)'
p75
sI227
S'        exec ccode in environment'
p76
sI228
S'    except HTTP:'
p77
sI229
S'        raise'
p78
sI230
S'    except RestrictedError:'
p79
sI231
S'        # do not encapsulate (obfuscate) the original RestrictedError'
p80
sI222
S'    try:'
p81
sI223
S'        if isinstance(code, types.CodeType):'
p82
ssS'call'
p83
S'(code="from gluon.serializers import json\\nresponse.writ...ponse._vars)))\\nresponse.write(\'\\\\n\', escape=False)", environment={\'A\': <class \'gluon.html.A\'>, \'ANY_OF\': <class \'gluon.validators.ANY_OF\'>, \'ASSIGNJS\': <function ASSIGNJS>, \'AppConfig\': <function AppConfig>, \'Auth\': <class \'gluon.tools.Auth\'>, \'B\': <class \'gluon.html.B\'>, \'BEAUTIFY\': <class \'gluon.html.BEAUTIFY\'>, \'BODY\': <class \'gluon.html.BODY\'>, \'BR\': <class \'gluon.html.BR\'>, \'BUTTON\': <class \'gluon.html.BUTTON\'>, ...}, layer=\'/home/bsmith/git/webcad/web2py/applications/webcad_blog/views/generic.json\')'
p84
sS'func'
p85
S'restricted'
p86
sa(dp87
g62
S'/home/bsmith/git/webcad/web2py/applications/webcad_blog/views/generic.json'
p88
sg64
(dp89
sg70
I2
sg71
(dp90
I1
S'{{from gluon.serializers import json}}{{=XML(json(response._vars))}}'
p91
ssg83
S'()'
p92
sg85
S'<module>'
p93
sa(dp94
g62
S'/home/bsmith/git/webcad/web2py/gluon/serializers.py'
p95
sg64
(dp96
S'default'
p97
S'<function custom_json>'
p98
sS'json_parser.dumps'
p99
S'<function dumps>'
p100
sS'global json_parser'
p101
S"<module 'json' from '/usr/lib/python2.7/json/__init__.pyc'>"
p102
sS'value'
p103
S"{'freqs': [10, 10.9, 11.8, 12.7, 13.6, 14.5, 15.4, 16.3, 17.2, 18.1, 19.0, 19.9, 20.8, 21.700000000000003, 22.6, 23.5, 24.4, 25.3, 26.2, 27.1, ...], 'gains': array([  5.56650220e+01,   5.49164950e+01,   5.4...e+01,  -7.55852071e+01,\n        -7.56644504e+01]), 'phases': array([  1.34348282e-01,   1.46439549e-01,   1.5...e-02,   1.33604751e-02,\n         1.32391388e-02])}"
p104
ssg70
I137
sg71
(dp105
I132
S''
sI133
S'def json(value, default=custom_json):'
p106
sI134
S'    if decimal_false_option:'
p107
sI135
S'        value = json_parser.dumps(value, default=default, use_decimal=False)'
p108
sI136
S'    else:'
p109
sI137
S'        value = json_parser.dumps(value, default=default)'
p110
sI138
S''
sI139
S'    # replace JavaScript incompatible spacing'
p111
sI140
S'    # http://timelessrepo.com/json-isnt-a-javascript-subset'
p112
sI141
S"    return value.replace(ur'\\u2028', '\\\\u2028').replace(ur'\\2029', '\\\\u2029')"
p113
ssg83
S"(value={'freqs': [10, 10.9, 11.8, 12.7, 13.6, 14.5, 15.4, 16.3, 17.2, 18.1, 19.0, 19.9, 20.8, 21.700000000000003, 22.6, 23.5, 24.4, 25.3, 26.2, 27.1, ...], 'gains': array([  5.56650220e+01,   5.49164950e+01,   5.4...e+01,  -7.55852071e+01,\n        -7.56644504e+01]), 'phases': array([  1.34348282e-01,   1.46439549e-01,   1.5...e-02,   1.33604751e-02,\n         1.32391388e-02])}, default=<function custom_json>)"
p114
sg85
S'json'
p115
sa(dp116
g62
S'/usr/lib/python2.7/json/__init__.py'
p117
sg64
(dp118
S'obj'
p119
S"{'freqs': [10, 10.9, 11.8, 12.7, 13.6, 14.5, 15.4, 16.3, 17.2, 18.1, 19.0, 19.9, 20.8, 21.700000000000003, 22.6, 23.5, 24.4, 25.3, 26.2, 27.1, ...], 'gains': array([  5.56650220e+01,   5.49164950e+01,   5.4...e+01,  -7.55852071e+01,\n        -7.56644504e+01]), 'phases': array([  1.34348282e-01,   1.46439549e-01,   1.5...e-02,   1.33604751e-02,\n         1.32391388e-02])}"
p120
sS'sort_keys'
p121
S'False'
p122
sS'kw'
p123
g45
sS').encode'
p124
S'undefined'
p125
ssg70
I251
sg71
(dp126
I246
S'        cls = JSONEncoder'
p127
sI247
S'    return cls('
p128
sI248
S'        skipkeys=skipkeys, ensure_ascii=ensure_ascii,'
p129
sI249
S'        check_circular=check_circular, allow_nan=allow_nan, indent=indent,'
p130
sI250
S'        separators=separators, encoding=encoding, default=default,'
p131
sI251
S'        sort_keys=sort_keys, **kw).encode(obj)'
p132
sI252
S''
sI253
S''
sI254
S'_default_decoder = JSONDecoder(encoding=None, object_hook=None,'
p133
sI255
S'                               object_pairs_hook=None)'
p134
ssg83
S"(obj={'freqs': [10, 10.9, 11.8, 12.7, 13.6, 14.5, 15.4, 16.3, 17.2, 18.1, 19.0, 19.9, 20.8, 21.700000000000003, 22.6, 23.5, 24.4, 25.3, 26.2, 27.1, ...], 'gains': array([  5.56650220e+01,   5.49164950e+01,   5.4...e+01,  -7.55852071e+01,\n        -7.56644504e+01]), 'phases': array([  1.34348282e-01,   1.46439549e-01,   1.5...e-02,   1.33604751e-02,\n         1.32391388e-02])}, skipkeys=False, ensure_ascii=True, check_circular=True, allow_nan=True, cls=<class 'json.encoder.JSONEncoder'>, indent=None, separators=None, encoding='utf-8', default=<function custom_json>, sort_keys=False, **kw={})"
p135
sg85
S'dumps'
p136
sa(dp137
g62
S'/usr/lib/python2.7/json/encoder.py'
p138
sg64
(dp139
S'self'
p140
S'<json.encoder.JSONEncoder object>'
p141
sS'o'
S"{'freqs': [10, 10.9, 11.8, 12.7, 13.6, 14.5, 15.4, 16.3, 17.2, 18.1, 19.0, 19.9, 20.8, 21.700000000000003, 22.6, 23.5, 24.4, 25.3, 26.2, 27.1, ...], 'gains': array([  5.56650220e+01,   5.49164950e+01,   5.4...e+01,  -7.55852071e+01,\n        -7.56644504e+01]), 'phases': array([  1.34348282e-01,   1.46439549e-01,   1.5...e-02,   1.33604751e-02,\n         1.32391388e-02])}"
p142
sS'self.iterencode'
p143
S'<bound method JSONEncoder.iterencode of <json.encoder.JSONEncoder object>>'
p144
sS'_one_shot'
p145
g125
sS'chunks'
p146
g125
sS'builtinTrue'
p147
S'True'
p148
ssg70
I207
sg71
(dp149
I202
S'            else:'
p150
sI203
S'                return encode_basestring(o)'
p151
sI204
S"        # This doesn't pass the iterator directly to ''.join() because the"
p152
sI205
S"        # exceptions aren't as detailed.  The list call should be roughly"
p153
sI206
S"        # equivalent to the PySequence_Fast that ''.join() would do."
p154
sI207
S'        chunks = self.iterencode(o, _one_shot=True)'
p155
sI208
S'        if not isinstance(chunks, (list, tuple)):'
p156
sI209
S'            chunks = list(chunks)'
p157
sI210
S"        return ''.join(chunks)"
p158
sI211
S''
ssg83
S"(self=<json.encoder.JSONEncoder object>, o={'freqs': [10, 10.9, 11.8, 12.7, 13.6, 14.5, 15.4, 16.3, 17.2, 18.1, 19.0, 19.9, 20.8, 21.700000000000003, 22.6, 23.5, 24.4, 25.3, 26.2, 27.1, ...], 'gains': array([  5.56650220e+01,   5.49164950e+01,   5.4...e+01,  -7.55852071e+01,\n        -7.56644504e+01]), 'phases': array([  1.34348282e-01,   1.46439549e-01,   1.5...e-02,   1.33604751e-02,\n         1.32391388e-02])})"
p159
sg85
S'encode'
p160
sa(dp161
g62
S'/usr/lib/python2.7/json/encoder.py'
p162
sg64
(dp163
S'_iterencode'
p164
S'<_json.Encoder object>'
p165
sS'o'
S"{'freqs': [10, 10.9, 11.8, 12.7, 13.6, 14.5, 15.4, 16.3, 17.2, 18.1, 19.0, 19.9, 20.8, 21.700000000000003, 22.6, 23.5, 24.4, 25.3, 26.2, 27.1, ...], 'gains': array([  5.56650220e+01,   5.49164950e+01,   5.4...e+01,  -7.55852071e+01,\n        -7.56644504e+01]), 'phases': array([  1.34348282e-01,   1.46439549e-01,   1.5...e-02,   1.33604751e-02,\n         1.32391388e-02])}"
p166
ssg70
I270
sg71
(dp167
I265
S'        else:'
p168
sI266
S'            _iterencode = _make_iterencode('
p169
sI267
S'                markers, self.default, _encoder, self.indent, floatstr,'
p170
sI268
S'                self.key_separator, self.item_separator, self.sort_keys,'
p171
sI269
S'                self.skipkeys, _one_shot)'
p172
sI270
S'        return _iterencode(o, 0)'
p173
sI271
S''
sI272
S'def _make_iterencode(markers, _default, _encoder, _indent, _floatstr,'
p174
sI273
S'        _key_separator, _item_separator, _sort_keys, _skipkeys, _one_shot,'
p175
sI274
S'        ## HACK: hand-optimized bytecode; turn globals into locals'
p176
ssg83
S"(self=<json.encoder.JSONEncoder object>, o={'freqs': [10, 10.9, 11.8, 12.7, 13.6, 14.5, 15.4, 16.3, 17.2, 18.1, 19.0, 19.9, 20.8, 21.700000000000003, 22.6, 23.5, 24.4, 25.3, 26.2, 27.1, ...], 'gains': array([  5.56650220e+01,   5.49164950e+01,   5.4...e+01,  -7.55852071e+01,\n        -7.56644504e+01]), 'phases': array([  1.34348282e-01,   1.46439549e-01,   1.5...e-02,   1.33604751e-02,\n         1.32391388e-02])}, _one_shot=True)"
p177
sg85
S'iterencode'
p178
sa(dp179
g62
S'/home/bsmith/git/webcad/web2py/gluon/serializers.py'
p180
sg64
(dp181
S'builtinrepr'
p182
S'<built-in function repr>'
p183
sS'builtinTypeError'
p184
S"<type 'exceptions.TypeError'>"
p185
sS'o'
S'array([  1.34348282e-01,   1.46439549e-01,   1.5...e-02,   1.33604751e-02,\n         1.32391388e-02])'
p186
ssg70
I110
sg71
(dp187
I105
S"    elif hasattr(o, 'as_list') and callable(o.as_list):"
p188
sI106
S'        return o.as_list()'
p189
sI107
S"    elif hasattr(o, 'as_dict') and callable(o.as_dict):"
p190
sI108
S'        return o.as_dict()'
p191
sI109
S'    else:'
p192
sI110
S'        raise TypeError(repr(o) + " is not JSON serializable")'
p193
sI111
S''
sI112
S''
sI113
S'def xml_rec(value, key, quote=True):'
p194
sI114
S"    if hasattr(value, 'custom_xml') and callable(value.custom_xml):"
p195
ssg83
S'(o=array([  1.34348282e-01,   1.46439549e-01,   1.5...e-02,   1.33604751e-02,\n         1.32391388e-02]))'
p196
sg85
S'custom_json'
p197
sasS'pyver'
p198
S'Python 2.7.12: /usr/bin/python (prefix: /usr)'
p199
sS'session'
p200
g57
(S's\x1a\x00\x00\x00<div><table></table></div>'
tRp201
sS'etype'
p202
S"<type 'exceptions.TypeError'>"
p203
sS'date'
p204
S'Tue Nov 29 02:51:17 2016'
p205
sS'response'
p206
g57
(S'sr\x1f\x00\x00<div><table><tr><td style="font-weight:bold;vertical-align:top;">body</td><td style="vertical-align:top;">:</td><td><div>&lt;cStringIO.StringO object at 0x7f1ee2819d18&gt;</div></td></tr><tr><td style="font-weight:bold;vertical-align:top;">cookies</td><td style="vertical-align:top;">:</td><td><div><table><tr><td style="font-weight:bold;vertical-align:top;">session_id_webcad_blog</td><td style="vertical-align:top;">:</td><td><div>127.0.0.1-6c66533b-9484-4e5c-9f35-43ae91336489<table><tr><td style="font-weight:bold;vertical-align:top;">comment</td><td style="vertical-align:top;">:</td><td><div></div></td></tr><tr><td style="font-weight:bold;vertical-align:top;">domain</td><td style="vertical-align:top;">:</td><td><div></div></td></tr><tr><td style="font-weight:bold;vertical-align:top;">expires</td><td style="vertical-align:top;">:</td><td><div></div></td></tr><tr><td style="font-weight:bold;vertical-align:top;">httponly</td><td style="vertical-align:top;">:</td><td><div></div></td></tr><tr><td style="font-weight:bold;vertical-align:top;">max-age</td><td style="vertical-align:top;">:</td><td><div></div></td></tr><tr><td style="font-weight:bold;vertical-align:top;">path</td><td style="vertical-align:top;">:</td><td><div>/</div></td></tr><tr><td style="font-weight:bold;vertical-align:top;">secure</td><td style="vertical-align:top;">:</td><td><div></div></td></tr><tr><td style="font-weight:bold;vertical-align:top;">version</td><td style="vertical-align:top;">:</td><td><div></div></td></tr></table></div></td></tr></table></div></td></tr><tr><td style="font-weight:bold;vertical-align:top;">delimiters</td><td style="vertical-align:top;">:</td><td><div><table><tr><td><div>{{</div></td></tr><tr><td><div>}}</div></td></tr></table></div></td></tr><tr><td style="font-weight:bold;vertical-align:top;">files</td><td style="vertical-align:top;">:</td><td><div><table></table></div></td></tr><tr><td style="font-weight:bold;vertical-align:top;">flash</td><td style="vertical-align:top;">:</td><td><div></div></td></tr><tr><td style="font-weight:bold;vertical-align:top;">form_label_separator</td><td style="vertical-align:top;">:</td><td><div></div></td></tr><tr><td style="font-weight:bold;vertical-align:top;">formstyle</td><td style="vertical-align:top;">:</td><td><div>bootstrap3_inline</div></td></tr><tr><td style="font-weight:bold;vertical-align:top;">generic_patterns</td><td style="vertical-align:top;">:</td><td><div><table><tr><td><div>*</div></td></tr></table></div></td></tr><tr><td style="font-weight:bold;vertical-align:top;">google_analytics_id</td><td style="vertical-align:top;">:</td><td><div>None</div></td></tr><tr><td style="font-weight:bold;vertical-align:top;">headers</td><td style="vertical-align:top;">:</td><td><div><table><tr><td style="font-weight:bold;vertical-align:top;">X-Powered-By</td><td style="vertical-align:top;">:</td><td><div>web2py</div></td></tr></table></div></td></tr><tr><td style="font-weight:bold;vertical-align:top;">logo</td><td style="vertical-align:top;">:</td><td><div><a class="navbar-brand" href="http://www.web2py.com/" id="web2py-logo"><b>web<span>2</span>py</b>&trade;&nbsp;</a></div></td></tr><tr><td style="font-weight:bold;vertical-align:top;">menu</td><td style="vertical-align:top;">:</td><td><div><table><tr><td><div><table><tr><td><div>Home</div></td></tr><tr><td><div>False</div></td></tr><tr><td><div>/webcad_blog/default/index.json</div></td></tr><tr><td><div><table></table></div></td></tr></table></div></td></tr><tr><td><div><table><tr><td><div>Blog</div></td></tr><tr><td><div>False</div></td></tr><tr><td><div>/webcad_blog/default/blog_home.json</div></td></tr></table></div></td></tr><tr><td><div><table><tr><td><div>Tools</div></td></tr><tr><td><div>False</div></td></tr><tr><td><div>#</div></td></tr><tr><td><div><table><tr><td><div><table><tr><td><div>PLL Designer</div></td></tr><tr><td><div>False</div></td></tr><tr><td><div>/webcad_blog/default/pll_designer.json</div></td></tr></table></div></td></tr><tr><td><div><table><tr><td><div>Test Page</div></td></tr><tr><td><div>False</div></td></tr><tr><td><div>/webcad_blog/default/test_page.json</div></td></tr></table></div></td></tr></table></div></td></tr></table></div></td></tr></table></div></td></tr><tr><td style="font-weight:bold;vertical-align:top;">meta</td><td style="vertical-align:top;">:</td><td><div><table><tr><td style="font-weight:bold;vertical-align:top;">author</td><td style="vertical-align:top;">:</td><td><div>Your Name &lt;you@example.com&gt;</div></td></tr><tr><td style="font-weight:bold;vertical-align:top;">description</td><td style="vertical-align:top;">:</td><td><div>a cool new app</div></td></tr><tr><td style="font-weight:bold;vertical-align:top;">generator</td><td style="vertical-align:top;">:</td><td><div>Web2py Web Framework</div></td></tr><tr><td style="font-weight:bold;vertical-align:top;">keywords</td><td style="vertical-align:top;">:</td><td><div><table><tr><td><div>web2py</div></td></tr><tr><td><div>python</div></td></tr><tr><td><div>framework</div></td></tr></table></div></td></tr></table></div></td></tr><tr><td style="font-weight:bold;vertical-align:top;">models_to_run</td><td style="vertical-align:top;">:</td><td><div><table><tr><td><div>^\\w+\\.py$</div></td></tr><tr><td><div>^pll_calcs/\\w+\\.py$</div></td></tr><tr><td><div>^pll_calcs/callSimulatePllOpenLoop/\\w+\\.py$</div></td></tr></table></div></td></tr><tr><td style="font-weight:bold;vertical-align:top;">postprocessing</td><td style="vertical-align:top;">:</td><td><div><table></table></div></td></tr><tr><td style="font-weight:bold;vertical-align:top;">session_client</td><td style="vertical-align:top;">:</td><td><div>127.0.0.1</div></td></tr><tr><td style="font-weight:bold;vertical-align:top;">session_cookie_compression_level</td><td style="vertical-align:top;">:</td><td><div>None</div></td></tr><tr><td style="font-weight:bold;vertical-align:top;">session_cookie_expires</td><td style="vertical-align:top;">:</td><td><div>None</div></td></tr><tr><td style="font-weight:bold;vertical-align:top;">session_data_name</td><td style="vertical-align:top;">:</td><td><div>session_data_webcad_blog</div></td></tr><tr><td style="font-weight:bold;vertical-align:top;">session_file</td><td style="vertical-align:top;">:</td><td><div>None</div></td></tr><tr><td style="font-weight:bold;vertical-align:top;">session_filename</td><td style="vertical-align:top;">:</td><td><div>/home/bsmith/git/webcad/web2py/applications/webcad_blog/sessions/127.0.0.1-6c66533b-9484-4e5c-9f35-43ae91336489</div></td></tr><tr><td style="font-weight:bold;vertical-align:top;">session_hash</td><td style="vertical-align:top;">:</td><td><div>c0762cbf4baf7f9af97c051e7fcb8083</div></td></tr><tr><td style="font-weight:bold;vertical-align:top;">session_id</td><td style="vertical-align:top;">:</td><td><div>127.0.0.1-6c66533b-9484-4e5c-9f35-43ae91336489</div></td></tr><tr><td style="font-weight:bold;vertical-align:top;">session_id_name</td><td style="vertical-align:top;">:</td><td><div>session_id_webcad_blog</div></td></tr><tr><td style="font-weight:bold;vertical-align:top;">session_masterapp</td><td style="vertical-align:top;">:</td><td><div>webcad_blog</div></td></tr><tr><td style="font-weight:bold;vertical-align:top;">session_new</td><td style="vertical-align:top;">:</td><td><div>True</div></td></tr><tr><td style="font-weight:bold;vertical-align:top;">session_storage_type</td><td style="vertical-align:top;">:</td><td><div>file</div></td></tr><tr><td style="font-weight:bold;vertical-align:top;">status</td><td style="vertical-align:top;">:</td><td><div>200</div></td></tr><tr><td style="font-weight:bold;vertical-align:top;">subtitle</td><td style="vertical-align:top;">:</td><td><div></div></td></tr><tr><td style="font-weight:bold;vertical-align:top;">title</td><td style="vertical-align:top;">:</td><td><div>Webcad Blog</div></td></tr><tr><td style="font-weight:bold;vertical-align:top;">view</td><td style="vertical-align:top;">:</td><td><div>pll_calcs/callSimulatePllOpenLoop.json</div></td></tr></table></div>'
tRp207
sS'locals'
p208
(dp209
S'o'
S'array([  1.34348282e-01,   1.46439549e-01,   1.5...e-02,   1.33604751e-02,\n         1.32391388e-02])'
p210
sssS'traceback'
p211
S'Traceback (most recent call last):\n  File "/home/bsmith/git/webcad/web2py/gluon/restricted.py", line 227, in restricted\n    exec ccode in environment\n  File "/home/bsmith/git/webcad/web2py/applications/webcad_blog/views/generic.json", line 2, in <module>\n  File "/home/bsmith/git/webcad/web2py/gluon/serializers.py", line 137, in json\n    value = json_parser.dumps(value, default=default)\n  File "/usr/lib/python2.7/json/__init__.py", line 251, in dumps\n    sort_keys=sort_keys, **kw).encode(obj)\n  File "/usr/lib/python2.7/json/encoder.py", line 207, in encode\n    chunks = self.iterencode(o, _one_shot=True)\n  File "/usr/lib/python2.7/json/encoder.py", line 270, in iterencode\n    return _iterencode(o, 0)\n  File "/home/bsmith/git/webcad/web2py/gluon/serializers.py", line 110, in custom_json\n    raise TypeError(repr(o) + " is not JSON serializable")\nTypeError: array([  1.34348282e-01,   1.46439549e-01,   1.58530795e-01,\n         1.70622020e-01,   1.82713220e-01,   1.94804396e-01,\n         2.06895544e-01,   2.18986664e-01,   2.31077753e-01,\n         2.43168810e-01,   2.55259833e-01,   2.67350821e-01,\n         2.79441772e-01,   2.91532684e-01,   3.03623555e-01,\n         3.15714384e-01,   3.27805170e-01,   3.39895910e-01,\n         3.51986603e-01,   3.64077247e-01,   3.76167840e-01,\n         3.88258381e-01,   4.00348869e-01,   4.12439300e-01,\n         4.24529675e-01,   4.36619990e-01,   4.48710245e-01,\n         4.60800438e-01,   4.72890566e-01,   4.84980629e-01,\n         4.97070625e-01,   5.09160552e-01,   5.21250408e-01,\n         5.33340191e-01,   5.45429901e-01,   5.57519535e-01,\n         5.69609091e-01,   5.81698569e-01,   5.93787966e-01,\n         6.05877280e-01,   6.17966510e-01,   6.30055654e-01,\n         6.42144711e-01,   6.54233679e-01,   6.66322556e-01,\n         6.78411341e-01,   6.90500031e-01,   7.02588626e-01,\n         7.14677123e-01,   7.26765520e-01,   7.38853817e-01,\n         7.50942012e-01,   7.63030102e-01,   7.75118086e-01,\n         7.87205963e-01,   7.99293731e-01,   8.11381387e-01,\n         8.23468931e-01,   8.35556361e-01,   8.47643675e-01,\n         8.59730871e-01,   8.71817947e-01,   8.83904903e-01,\n         8.95991736e-01,   9.08078445e-01,   9.20165028e-01,\n         9.32251483e-01,   9.44337809e-01,   9.56424004e-01,\n         9.68510066e-01,   9.80595993e-01,   9.92681785e-01,\n         1.00476744e+00,   1.01685295e+00,   1.02893833e+00,\n         1.04102356e+00,   1.05310864e+00,   1.06519358e+00,\n         1.07727838e+00,   1.08936302e+00,   1.10144751e+00,\n         1.11353185e+00,   1.12561603e+00,   1.13770006e+00,\n         1.14978393e+00,   1.16186764e+00,   1.17395119e+00,\n         1.18603458e+00,   1.19811780e+00,   1.21020086e+00,\n         1.22228375e+00,   1.23436647e+00,   1.24644901e+00,\n         1.25853139e+00,   1.27061359e+00,   1.28269561e+00,\n         1.29477746e+00,   1.30685913e+00,   1.31894061e+00,\n         1.33102191e+00,   1.46390369e+00,   1.58468406e+00,\n         1.70544246e+00,   1.82617722e+00,   1.94688669e+00,\n         2.06756920e+00,   2.18822309e+00,   2.30884669e+00,\n         2.42943834e+00,   2.54999640e+00,   2.67051921e+00,\n         2.79100512e+00,   2.91145248e+00,   3.03185965e+00,\n         3.15222498e+00,   3.27254683e+00,   3.39282357e+00,\n         3.51305356e+00,   3.63323518e+00,   3.75336680e+00,\n         3.87344679e+00,   3.99347354e+00,   4.11344543e+00,\n         4.23336085e+00,   4.35321820e+00,   4.47301586e+00,\n         4.59275224e+00,   4.71242575e+00,   4.83203479e+00,\n         4.95157778e+00,   5.07105314e+00,   5.19045928e+00,\n         5.30979465e+00,   5.42905767e+00,   5.54824678e+00,\n         5.66736043e+00,   5.78639706e+00,   5.90535512e+00,\n         6.02423309e+00,   6.14302941e+00,   6.26174256e+00,\n         6.38037103e+00,   6.49891328e+00,   6.61736782e+00,\n         6.73573312e+00,   6.85400770e+00,   6.97219006e+00,\n         7.09027871e+00,   7.20827217e+00,   7.32616897e+00,\n         7.44396763e+00,   7.56166671e+00,   7.67926473e+00,\n         7.79676026e+00,   7.91415186e+00,   8.03143808e+00,\n         8.14861751e+00,   8.26568872e+00,   8.38265030e+00,\n         8.49950084e+00,   8.61623895e+00,   8.73286324e+00,\n         8.84937232e+00,   8.96576481e+00,   9.08203936e+00,\n         9.19819459e+00,   9.31422916e+00,   9.43014172e+00,\n         9.54593093e+00,   9.66159547e+00,   9.77713402e+00,\n         9.89254525e+00,   1.00078279e+01,   1.01229806e+01,\n         1.02380021e+01,   1.03528911e+01,   1.04676464e+01,\n         1.05822667e+01,   1.06967507e+01,   1.08110972e+01,\n         1.09253050e+01,   1.10393727e+01,   1.11532993e+01,\n         1.12670835e+01,   1.13807240e+01,   1.14942198e+01,\n         1.16075695e+01,   1.17207721e+01,   1.18338263e+01,\n         1.19467311e+01,   1.20594852e+01,   1.21720875e+01,\n         1.22845370e+01,   1.23968323e+01,   1.25089726e+01,\n         1.26209566e+01,   1.27327832e+01,   1.28444514e+01,\n         1.29559601e+01,   1.41717303e+01,   1.52589921e+01,\n         1.63281841e+01,   1.73784927e+01,   1.84091998e+01,\n         1.94196818e+01,   2.04094076e+01,   2.13779351e+01,\n         2.23249081e+01,   2.32500524e+01,   2.41531709e+01,\n         2.50341392e+01,   2.58929005e+01,   2.67294607e+01,\n         2.75438832e+01,   2.83362836e+01,   2.91068252e+01,\n         2.98557138e+01,   3.05831933e+01,   3.12895410e+01,\n         3.19750635e+01,   3.26400930e+01,   3.32849829e+01,\n         3.39101054e+01,   3.45158473e+01,   3.51026077e+01,\n         3.56707952e+01,   3.62208253e+01,   3.67531186e+01,\n         3.72680985e+01,   3.77661894e+01,   3.82478155e+01,\n         3.87133991e+01,   3.91633597e+01,   3.95981124e+01,\n         4.00180676e+01,   4.04236300e+01,   4.08151977e+01,\n         4.11931619e+01,   4.15579065e+01,   4.19098074e+01,\n         4.22492325e+01,   4.25765414e+01,   4.28920852e+01,\n         4.31962063e+01,   4.34892385e+01,   4.37715069e+01,\n         4.40433278e+01,   4.43050091e+01,   4.45568499e+01,\n         4.47991409e+01,   4.50321646e+01,   4.52561949e+01,\n         4.54714980e+01,   4.56783320e+01,   4.58769473e+01,\n         4.60675866e+01,   4.62504854e+01,   4.64258718e+01,\n         4.65939670e+01,   4.67549852e+01,   4.69091341e+01,\n         4.70566150e+01,   4.71976226e+01,   4.73323459e+01,\n         4.74609676e+01,   4.75836651e+01,   4.77006100e+01,\n         4.78119684e+01,   4.79179014e+01,   4.80185652e+01,\n         4.81141108e+01,   4.82046846e+01,   4.82904286e+01,\n         4.83714801e+01,   4.84479725e+01,   4.85200348e+01,\n         4.85877921e+01,   4.86513657e+01,   4.87108730e+01,\n         4.87664281e+01,   4.88181414e+01,   4.88661201e+01,\n         4.89104679e+01,   4.89512857e+01,   4.89886711e+01,\n         4.90227190e+01,   4.90535214e+01,   4.90811673e+01,\n         4.91057435e+01,   4.91273340e+01,   4.91460204e+01,\n         4.91618817e+01,   4.91749951e+01,   4.91854350e+01,\n         4.91932740e+01,   4.91985826e+01,   4.92014291e+01,\n         4.92018801e+01,   4.90659731e+01,   4.87580132e+01,\n         4.83174772e+01,   4.77762038e+01,   4.71589585e+01,\n         4.64851755e+01,   4.57702168e+01,   4.50262946e+01,\n         4.42631573e+01,   4.34886078e+01,   4.27088978e+01,\n         4.19290344e+01,   4.11530185e+01,   4.03840344e+01,\n         3.96245999e+01,   3.88766873e+01,   3.81418220e+01,\n         3.74211616e+01,   3.67155616e+01,   3.60256294e+01,\n         3.53517680e+01,   3.46942133e+01,   3.40530647e+01,\n         3.34283098e+01,   3.28198462e+01,   3.22274988e+01,\n         3.16510345e+01,   3.10901749e+01,   3.05446056e+01,\n         3.00139857e+01,   2.94979541e+01,   2.89961361e+01,\n         2.85081477e+01,   2.80335996e+01,   2.75721011e+01,\n         2.71232620e+01,   2.66866956e+01,   2.62620199e+01,\n         2.58488589e+01,   2.54468445e+01,   2.50556163e+01,\n         2.46748234e+01,   2.43041236e+01,   2.39431849e+01,\n         2.35916849e+01,   2.32493113e+01,   2.29157619e+01,\n         2.25907442e+01,   2.22739759e+01,   2.19651841e+01,\n         2.16641057e+01,   2.13704867e+01,   2.10840825e+01,\n         2.08046569e+01,   2.05319829e+01,   2.02658412e+01,\n         2.00060212e+01,   1.97523195e+01,   1.95045408e+01,\n         1.92624965e+01,   1.90260055e+01,   1.87948932e+01,\n         1.85689915e+01,   1.83481386e+01,   1.81321786e+01,\n         1.79209615e+01,   1.77143428e+01,   1.75121833e+01,\n         1.73143489e+01,   1.71207104e+01,   1.69311434e+01,\n         1.67455279e+01,   1.65637483e+01,   1.63856932e+01,\n         1.62112551e+01,   1.60403304e+01,   1.58728192e+01,\n         1.57086250e+01,   1.55476550e+01,   1.53898192e+01,\n         1.52350311e+01,   1.50832070e+01,   1.49342662e+01,\n         1.47881306e+01,   1.46447249e+01,   1.45039764e+01,\n         1.43658146e+01,   1.42301715e+01,   1.40969815e+01,\n         1.39661809e+01,   1.38377083e+01,   1.37115042e+01,\n         1.35875110e+01,   1.34656731e+01,   1.33459365e+01,\n         1.32282492e+01,   1.31125604e+01,   1.29988214e+01,\n         1.28869846e+01,   1.17701436e+01,   1.09074894e+01,\n         1.01606563e+01,   9.50812861e+00,   8.93333387e+00,\n         8.42332038e+00,   7.96783126e+00,   7.55864565e+00,\n         7.18910206e+00,   6.85374843e+00,   6.54808166e+00,\n         6.26835112e+00,   6.01140876e+00,   5.77459344e+00,\n         5.55564080e+00,   5.35261229e+00,   5.16383889e+00,\n         4.98787602e+00,   4.82346719e+00,   4.66951445e+00,\n         4.52505426e+00,   4.38923754e+00,   4.26131330e+00,\n         4.14061482e+00,   4.02654826e+00,   3.91858294e+00,\n         3.81624321e+00,   3.71910149e+00,   3.62677238e+00,\n         3.53890758e+00,   3.45519155e+00,   3.37533774e+00,\n         3.29908537e+00,   3.22619656e+00,   3.15645390e+00,\n         3.08965831e+00,   3.02562711e+00,   2.96419241e+00,\n         2.90519963e+00,   2.84850619e+00,   2.79398040e+00,\n         2.74150040e+00,   2.69095333e+00,   2.64223444e+00,\n         2.59524640e+00,   2.54989869e+00,   2.50610697e+00,\n         2.46379258e+00,   2.42288207e+00,   2.38330678e+00,\n         2.34500244e+00,   2.30790886e+00,   2.27196956e+00,\n         2.23713153e+00,   2.20334496e+00,   2.17056299e+00,\n         2.13874150e+00,   2.10783892e+00,   2.07781604e+00,\n         2.04863584e+00,   2.02026337e+00,   1.99266555e+00,\n         1.96581113e+00,   1.93967046e+00,   1.91421549e+00,\n         1.88941961e+00,   1.86525755e+00,   1.84170533e+00,\n         1.81874016e+00,   1.79634038e+00,   1.77448538e+00,\n         1.75315551e+00,   1.73233210e+00,   1.71199733e+00,\n         1.69213419e+00,   1.67272649e+00,   1.65375873e+00,\n         1.63521613e+00,   1.61708457e+00,   1.59935053e+00,\n         1.58200109e+00,   1.56502387e+00,   1.54840702e+00,\n         1.53213920e+00,   1.51620953e+00,   1.50060758e+00,\n         1.48532333e+00,   1.47034719e+00,   1.45566994e+00,\n         1.44128272e+00,   1.42717702e+00,   1.41334465e+00,\n         1.39977777e+00,   1.38646878e+00,   1.37341042e+00,\n         1.36059568e+00,   1.34801779e+00,   1.33567026e+00,\n         1.32354681e+00,   1.20339261e+00,   1.11164582e+00,\n         1.03289538e+00,   9.64562856e-01,   9.04709461e-01,\n         8.51849352e-01,   8.04824651e-01,   7.62719702e-01,\n         7.24800884e-01,   6.90473521e-01,   6.59250473e-01,\n         6.30728885e-01,   6.04572715e-01,   5.80499432e-01,\n         5.58269776e-01,   5.37679778e-01,   5.18554488e-01,\n         5.00742986e-01,   4.84114400e-01,   4.68554680e-01,\n         4.53963978e-01,   4.40254511e-01,   4.27348785e-01,\n         4.15178132e-01,   4.03681493e-01,   3.92804387e-01,\n         3.82498050e-01,   3.72718706e-01,   3.63426943e-01,\n         3.54587185e-01,   3.46167232e-01,   3.38137874e-01,\n         3.30472548e-01,   3.23147046e-01,   3.16139262e-01,\n         3.09428965e-01,   3.02997605e-01,   2.96828144e-01,\n         2.90904904e-01,   2.85213435e-01,   2.79740393e-01,\n         2.74473441e-01,   2.69401154e-01,   2.64512936e-01,\n         2.59798946e-01,   2.55250032e-01,   2.50857672e-01,\n         2.46613922e-01,   2.42511364e-01,   2.38543068e-01,\n         2.34702550e-01,   2.30983735e-01,   2.27380928e-01,\n         2.23888786e-01,   2.20502285e-01,   2.17216704e-01,\n         2.14027599e-01,   2.10930780e-01,   2.07922300e-01,\n         2.04998432e-01,   2.02155656e-01,   1.99390644e-01,\n         1.96700249e-01,   1.94081490e-01,   1.91531544e-01,\n         1.89047734e-01,   1.86627519e-01,   1.84268489e-01,\n         1.81968352e-01,   1.79724929e-01,   1.77536150e-01,\n         1.75400041e-01,   1.73314723e-01,   1.71278407e-01,\n         1.69289386e-01,   1.67346030e-01,   1.65446785e-01,\n         1.63590166e-01,   1.61774754e-01,   1.59999192e-01,\n         1.58262182e-01,   1.56562482e-01,   1.54898903e-01,\n         1.53270305e-01,   1.51675597e-01,   1.50113731e-01,\n         1.48583704e-01,   1.47084552e-01,   1.45615348e-01,\n         1.44175206e-01,   1.42763271e-01,   1.41378722e-01,\n         1.40020771e-01,   1.38688657e-01,   1.37381652e-01,\n         1.36099050e-01,   1.34840176e-01,   1.33604377e-01,\n         1.32391024e-01,   1.20366576e-01,   1.11186112e-01,\n         1.03306809e-01,   9.64703500e-02,   9.04825512e-02,\n         8.51946224e-02,   8.04906348e-02,   7.62789235e-02,\n         7.24860553e-02,   6.90525106e-02,   6.59295372e-02,\n         6.30768205e-02,   6.04607342e-02,   5.80530085e-02,\n         5.58297040e-02,   5.37704136e-02,   5.18576337e-02,\n         5.00762661e-02,   4.84132179e-02,   4.68570799e-02,\n         4.53978638e-02,   4.40267882e-02,   4.27361014e-02,\n         4.15189346e-02,   4.03691801e-02,   3.92813884e-02,\n         3.82506819e-02,   3.72726819e-02,   3.63434465e-02,\n         3.54594171e-02,   3.46173732e-02,   3.38143932e-02,\n         3.30478203e-02,   3.23152334e-02,   3.16144213e-02,\n         3.09433607e-02,   3.03001963e-02,   2.96832242e-02,\n         2.90908762e-02,   2.85217070e-02,   2.79743823e-02,\n         2.74476681e-02,   2.69404218e-02,   2.64515836e-02,\n         2.59801693e-02,   2.55252637e-02,   2.50860146e-02,\n         2.46616272e-02,   2.42513599e-02,   2.38545195e-02,\n         2.34704576e-02,   2.30985666e-02,   2.27382770e-02,\n         2.23890544e-02,   2.20503965e-02,   2.17218310e-02,\n         2.14029135e-02,   2.10932251e-02,   2.07923709e-02,\n         2.04999782e-02,   2.02156950e-02,   1.99391886e-02,\n         1.96701441e-02,   1.94082635e-02,   1.91532645e-02,\n         1.89048792e-02,   1.86628538e-02,   1.84269469e-02,\n         1.81969296e-02,   1.79725839e-02,   1.77537027e-02,\n         1.75400886e-02,   1.73315539e-02,   1.71279195e-02,\n         1.69290146e-02,   1.67346765e-02,   1.65447495e-02,\n         1.63590852e-02,   1.61775418e-02,   1.59999834e-02,\n         1.58262803e-02,   1.56563084e-02,   1.54899486e-02,\n         1.53270870e-02,   1.51676144e-02,   1.50114261e-02,\n         1.48584218e-02,   1.47085050e-02,   1.45615832e-02,\n         1.44175676e-02,   1.42763727e-02,   1.41379165e-02,\n         1.40021201e-02,   1.38689075e-02,   1.37382058e-02,\n         1.36099445e-02,   1.34840561e-02,   1.33604751e-02,\n         1.32391388e-02]) is not JSON serializable\n'
p212
s.